(lp0
(lp1
cnumpy.core.multiarray
scalar
p2
(cnumpy
dtype
p3
(S'f8'
p4
I0
I1
tp5
Rp6
(I3
S'<'
p7
NNNI-1
I-1
I0
tp8
bS'\x15o\x94\xc1\x063A\xc0'
p9
tp10
Rp11
aF0.14147909647902843
aF0.2833027822810569
aF0.9475938313841902
aF-0.042298103195308495
aa(lp12
g2
(g6
S'\xf7B\x12\xc5\x84`J\xc0'
p13
tp14
Rp15
aF0.11152040477603206
aF-0.15967472702904592
aF0.9806821486352819
aF0.018157759081905218
aa(lp16
g2
(g6
S'\xa15CPe{E\xc0'
p17
tp18
Rp19
aF0.017873136034299037
aF-0.3179116442039828
aF0.9479329128819488
aF0.0059941774217596765
aa(lp20
g2
(g6
S'\xb3\x1fE`n\xd5E\xc0'
p21
tp22
Rp23
aF0.3321240234788772
aF-0.20007309554692604
aF0.9189317034066603
aF0.07231122969917327
aa(lp24
g2
(g6
S'\x03\x06\xf9\x91\xf3\\E\xc0'
p25
tp26
Rp27
aF0.24759188595399625
aF-0.4697485045049929
aF0.8358669339739874
aF0.13914405921199788
aa(lp28
g2
(g6
S'\xaa\x19\xd6\xd5?\x0cF\xc0'
p29
tp30
Rp31
aF-0.0513474454755813
aF-0.02440775849549111
aF0.9983817533246364
aF-0.0012553074456295428
aa(lp32
g2
(g6
S'\x0f\r4\xac\xc32I\xc0'
p33
tp34
Rp35
aF0.1828513842987424
aF-0.3453658961178746
aF0.9179076977205145
aF0.06879845582682673
aa(lp36
g2
(g6
S'I\xad\x93\xb2\x97rC\xc0'
p37
tp38
Rp39
aF0.08647515220039222
aF-0.41807586986496237
aF0.9034008506019187
aF0.0400189732539964
aa(lp40
g2
(g6
S'\xcd32\x17\x84C@\xc0'
p41
tp42
Rp43
aF0.07595532553729845
aF-0.28463572997051956
aF0.9553539531029909
aF0.022629936746728162
aa(lp44
g2
(g6
S'C\x8fm\xf1!\xa8M\xc0'
p45
tp46
Rp47
aF0.23855903038007184
aF0.11613271091003498
aF0.9637304517682902
aF-0.028747153168508656
aa(lp48
g2
(g6
S'\xce\x13\xa3\xd7\x01:B\xc0'
p49
tp50
Rp51
aF0.14238040951808503
aF0.26432190924515786
aF0.9530490141675693
aF-0.039488275129223586
aa(lp52
g2
(g6
S'\xde\xdf\xb9\x8d1\x8dF\xc0'
p53
tp54
Rp55
aF0.2154166242089436
aF-0.3653802935269044
aF0.9013699978297641
aF0.08732151011627715
aa(lp56
g2
(g6
S'\x91\x8f@\xeb\xa5\xe3K\xc0'
p57
tp58
Rp59
aF0.13867415287203308
aF0.0942981560547225
aF0.9857491346962352
aF-0.013265765546203167
aa(lp60
g2
(g6
S'a\xf54\xee\xae\xdd@\xc0'
p61
tp62
Rp63
aF-0.1502809116840295
aF0.2013901062690395
aF0.9674083624221897
aF0.031284708660606134
aa(lp64
g2
(g6
S'n\x1ct\x91\xdd\xf8G\xc0'
p65
tp66
Rp67
aF0.20890968891397976
aF-0.34740120235296634
aF0.9106689316419119
aF0.07969468880519229
aa(lp68
g2
(g6
S'\xf3\x02\x9d\x03T\x97M\xc0'
p69
tp70
Rp71
aF0.3026463396861446
aF-0.00864545954052413
aF0.9530597630584554
aF0.0027453857420813117
aa(lp72
g2
(g6
S'\xca\xe7\xcc\x92\xc5\xbeG\xc0'
p73
tp74
Rp75
aF0.13268201419504944
aF0.16771548022806249
aF0.9766001219513638
aF-0.02278601776520849
aa(lp76
g2
(g6
S'\x9c~\xeb\x0f\xd4\xcaC\xc0'
p77
tp78
Rp79
aF-0.053738224369008415
aF-0.18613871560802916
aF0.9809998028491537
aF-0.010196499565101597
aa(lp80
g2
(g6
S'u\xc8h\xdeAi)\xc0'
p81
tp82
Rp83
aF0.09438395195531596
aF0.021151844190203578
aF0.9953091207521683
aF-0.002005803628430339
aa(lp84
g2
(g6
S'\xaf\\]Z\xca\xaeD\xc0'
p85
tp86
Rp87
aF0.08167099992249706
aF-0.41473541096498506
aF0.9054971614219673
aF0.037406915405098655
aa(lp88
g2
(g6
S'*\x1a\xef\xd2$\xf4A\xc0'
p89
tp90
Rp91
aF-0.1539477178580773
aF0.009508830441614775
aF0.9880321286214961
aF0.001481594275720744
aa(lp92
g2
(g6
S'6\xe3!\x03=qF\xc0'
p93
tp94
Rp95
aF0.16476368336390546
aF-0.414766526540762
aF0.8915979295594884
aF0.07664717288265602
aa.