(lp0
(lp1
cnumpy.core.multiarray
scalar
p2
(cnumpy
dtype
p3
(S'f8'
p4
I0
I1
tp5
Rp6
(I3
S'<'
p7
NNNI-1
I-1
I0
tp8
bS'\xc9o\xdb\xfc\x8c}D\xc0'
p9
tp10
Rp11
aF0.3644668393364971
aF-0.20479299044414084
aF0.9046637507486035
aF0.08250607353691483
aa(lp12
g2
(g6
S'\xd25\xed~U\xed9\xc0'
p13
tp14
Rp15
aF-0.12194197612499696
aF0.19751983280499508
aF0.9723695277949758
aF0.024770375919499384
aa(lp16
g2
(g6
S'0\x8fa\xd0\xe4\xdb:\xc0'
p17
tp18
Rp19
aF0.33790837339058005
aF-0.07610826329613776
aF0.9376957160701089
aF0.027426401775367672
aa(lp20
g2
(g6
S'\xf7X\x91F\xe0\xedG\xc0'
p21
tp22
Rp23
aF0.3928818181578462
aF0.14599731679894284
aF0.9057140036436454
aF-0.06333090913837522
aa(lp24
g2
(g6
S'\xfaR\xb0Uk\xb9?\xc0'
p25
tp26
Rp27
aF0.18924298813491505
aF0.10390766085495334
aF0.9762092749405616
aF-0.020143013117290956
aa(lp28
g2
(g6
S'\x96#9\x1d\xf1\x13\xf7?'
p29
tp30
Rp31
aF0.027109684684498456
aF-0.025721954344998535
aF0.9993012354309431
aF0.0006978016708469603
aa(lp32
g2
(g6
S'\xb0#\x8e\x8e\xcc\xf0:\xc0'
p33
tp34
Rp35
aF0.03812135897040146
aF-0.40081048416701537
aF0.9152152739200352
aF0.016694914061700643
aa(lp36
g2
(g6
S'\xa9:[\x846\xf6B\xc0'
p37
tp38
Rp39
aF0.0022331473227899332
aF-0.08793184854799736
aF0.9961239702989702
aF0.0001971288494479941
aa(lp40
g2
(g6
S'\xa1\x83\xe3D\xa5\x1c!\xc0'
p41
tp42
Rp43
aF-0.07046806691240672
aF0.20187605818001927
aF0.9767641434580931
aF0.01456422788560139
aa(lp44
g2
(g6
S'h\xb4^\xa96L<\xc0'
p45
tp46
Rp47
aF0.05662203455590678
aF-0.4242900463900508
aF0.9033629686871081
aF0.02659414487990318
aa(lp48
g2
(g6
S'.{\xda\x08\xdb\x83E\xc0'
p49
tp50
Rp51
aF0.11543424770705744
aF0.004693087079152335
aF0.9933038870024943
aF-0.0005453950029752713
aa(lp52
g2
(g6
S'\xaa\xf9\x14o\x12\xa7G\xc0'
p53
tp54
Rp55
aF0.25077126471408034
aF0.05141645930391647
aF0.9665879054913098
aF-0.013339470164604274
aa(lp56
g2
(g6
S'"A\t\xd9\x11k8\xc0'
p57
tp58
Rp59
aF0.024718790947213493
aF-0.412218935167225
aF0.9106807005954971
aF0.011188942157406108
aa(lp60
g2
(g6
S'q\xd5\xc9q\xec\x81A\xc0'
p61
tp62
Rp63
aF0.4180100784322172
aF-0.3481308681321809
aF0.8201140219594262
aF0.1774414381370922
aa(lp64
g2
(g6
S'U\x86q\xcfQ\xf7G\xc0'
p65
tp66
Rp67
aF0.4224981129561328
aF0.015311002110304815
aF0.9062063566942848
aF-0.007138406667852245
aa(lp68
g2
(g6
S'\x84\xefmB\xab\x91A\xc0'
p69
tp70
Rp71
aF0.2955530732210105
aF-0.224753740980008
aF0.9257349903560329
aF0.07175558832330256
aa(lp72
g2
(g6
S'\xcc\nd\xea\x16\xaa\x10@'
p73
tp74
Rp75
aF-0.12405764482506165
aF-0.18694837151409294
aF0.9742141808554843
aF-0.023806238022111834
aa(lp76
g2
(g6
S'\xea\xab\xdf\xb5k\\E\xc0'
p77
tp78
Rp79
aF0.23573310276291945
aF-0.1164622029389602
aF0.9643941386776704
aF0.02846761023559027
aa.