(lp0
(lp1
cnumpy.core.multiarray
scalar
p2
(cnumpy
dtype
p3
(S'f8'
p4
I0
I1
tp5
Rp6
(I3
S'<'
p7
NNNI-1
I-1
I0
tp8
bS'\xd9\x92=\xb5\xc6g+\xc0'
p9
tp10
Rp11
aF-0.2644027364099267
aF0.1759518212839512
aF0.9469522484577374
aF0.04912828825268637
aa(lp12
g2
(g6
S'v\x1c\x0b&\x02\x9b/\xc0'
p13
tp14
Rp15
aF-0.20795605001503836
aF0.20405795131503768
aF0.9555849583811763
aF0.044407444003208195
aa(lp16
g2
(g6
S'\xd5\xee\xfe\x1a\xc5\x8eA\xc0'
p17
tp18
Rp19
aF0.435026571622015
aF-0.24335381279900845
aF0.8580848773150298
aF0.12337401307500427
aa(lp20
g2
(g6
S'\x03\x00\xdde\xb1\xacB\xc0'
p21
tp22
Rp23
aF0.48322077370334265
aF-0.19670580756268538
aF0.8456779806044461
aF0.11239778580310589
aa(lp24
g2
(g6
S'\xeaP\x98\x01\xc4t2\xc0'
p25
tp26
Rp27
aF-0.0008944104727442557
aF0.20374628815305826
aF0.97902329668228
aF0.00018613736212905324
aa.