(lp0
(lp1
cnumpy.core.multiarray
scalar
p2
(cnumpy
dtype
p3
(S'f8'
p4
I0
I1
tp5
Rp6
(I3
S'<'
p7
NNNI-1
I-1
I0
tp8
bS'y\x06\xac\xd5\xde:\n\xc0'
p9
tp10
Rp11
aF-0.2605609506390035
aF0.1789726488850024
aF0.9474461331000127
aF0.04921998402090066
aa(lp12
g2
(g6
S'\xd7\xe3\xa0\xf1\x1c\x12\x12\xc0'
p13
tp14
Rp15
aF-0.16366701983493637
aF-0.09664500157426242
aF0.9816380219936182
aF-0.016113474656893733
aa(lp16
g2
(g6
S"&'\xdc\x87}\xaa<\xc0"
p17
tp18
Rp19
aF0.24625505936894354
aF-0.2338374599749464
aF0.9385703790257849
aF0.06135251961458593
aa(lp20
g2
(g6
S'\xe5\xe2\xb6\x89U\xbd=\xc0'
p21
tp22
Rp23
aF0.07698999689376267
aF-0.028160509916186346
aF0.9966317241955167
aF0.0021754049347889447
aa(lp24
g2
(g6
S'\x83hm\xed\nt\x1d\xc0'
p25
tp26
Rp27
aF-0.2058366525491231
aF0.31026101163018555
aF0.9255312874375534
aF0.06900154421294126
aa(lp28
g2
(g6
S'\x95\x9eW\xffTLC\xc0'
p29
tp30
Rp31
aF0.2830686312580314
aF-0.23310253834202585
aF0.9276181816391028
aF0.07113273303320788
aa(lp32
g2
(g6
S'\x15\x87I\x86\r84\xc0'
p33
tp34
Rp35
aF-0.1352840895193551
aF0.15618745154900734
aF0.9781805006707608
aF0.021601000186230193
aa(lp36
g2
(g6
S'\xe6o\xb8\x87}\xbc.\xc0'
p37
tp38
Rp39
aF-0.19222443364998484
aF0.20961767247398347
aF0.9577788491839244
aF0.042069876995896684
aa(lp40
g2
(g6
S'p9\x1d{\xac\xeb4\xc0'
p41
tp42
Rp43
aF-0.05132710852220899
aF0.08978858980811573
aF0.9946265972091742
aF0.004633486281260811
aa(lp44
g2
(g6
S'w\xaaQH\x95\xc9\x0c\xc0'
p45
tp46
Rp47
aF-0.18223388070596824
aF0.27451005577495213
aF0.9426658313728357
aF0.05306762066869075
aa(lp48
g2
(g6
S'!\x89E\xc5\xd5Z:\xc0'
p49
tp50
Rp51
aF0.03774430514968579
aF-0.33376437401287434
aF0.9418056006906453
aF0.013376119627694963
aa(lp52
g2
(g6
S'Jw\xde\x1a{\x8e;\xc0'
p53
tp54
Rp55
aF-0.00380640078540105
aF-0.06605090768991823
aF0.9978089623862753
aF-0.0002519682989280695
aa(lp56
g2
(g6
S'\\\x939\x07\n\xd0&\xc0'
p57
tp58
Rp59
aF-0.09457879383871665
aF-0.0842167402838148
aF0.9919162822671744
aF-0.008030030214711412
aa(lp60
g2
(g6
S'\xdd[\xd0\xd9\xd0(<\xc0'
p61
tp62
Rp63
aF0.028727341700606857
aF-0.2250572538060537
aF0.9738993283532325
aF0.006638567708231585
aa(lp64
g2
(g6
S'\x1eo\x19$G\x879\xc0'
p65
tp66
Rp67
aF-0.03205072362520973
aF0.2819569578920856
aF0.958845242027291
aF0.009424799890012861
aa(lp68
g2
(g6
S'\x16\x8c\x19I\xa6\xdbB\xc0'
p69
tp70
Rp71
aF0.2251986145260402
aF-0.21939767432703913
aF0.947857119460169
aF0.0521260549448093
aa(lp72
g2
(g6
S'\xc1\xebn\x98\xc0T1\xc0'
p73
tp74
Rp75
aF-0.09201304751825495
aF0.2526661208868763
aF0.9628657435325286
aF0.02414519359898818
aa.