(lp0
(lp1
cnumpy.core.multiarray
scalar
p2
(cnumpy
dtype
p3
(S'f8'
p4
I0
I1
tp5
Rp6
(I3
S'<'
p7
NNNI-1
I-1
I0
tp8
bS')a\xd0\x18\xe4\x1a\t\xc0'
p9
tp10
Rp11
aF0.19971884026096612
aF-0.20606997206896505
aF0.9569733507698377
aF0.043006480589092705
aa(lp12
g2
(g6
S"=H\x1b\xd0\x89\x9e'\xc0"
p13
tp14
Rp15
aF0.2068934148028709
aF-0.3133724375308045
aF0.9241596533064234
aF0.07015529565015623
aa.