(lp0
(lp1
cnumpy.core.multiarray
scalar
p2
(cnumpy
dtype
p3
(S'f8'
p4
I0
I1
tp5
Rp6
(I3
S'<'
p7
NNNI-1
I-1
I0
tp8
bS't\xd6g\xdc\xe0\x87:\xc0'
p9
tp10
Rp11
aF0.24005209669300123
aF-0.16599805969200085
aF0.9555525112140049
aF0.04170171896210022
aa(lp12
g2
(g6
S'K\x80I\x8f\xeb\x1aL\xc0'
p13
tp14
Rp15
aF0.35796665816896367
aF-0.3875414996219607
aF0.8330295351599155
aF0.1665330335439831
aa(lp16
g2
(g6
S'\xef\rbZ7BF\xc0'
p17
tp18
Rp19
aF-0.08195791653893594
aF0.14103548049423129
aF0.9865366752571036
aF0.011716720147644308
aa(lp20
g2
(g6
S'\x18_(\xa6\xef^E\xc0'
p21
tp22
Rp23
aF0.3366757485340774
aF0.37300354608508574
aF0.8519324011071958
aF-0.14740752660803388
aa(lp24
g2
(g6
S'\x80\xbe\xd4-!\x9aN\xc0'
p25
tp26
Rp27
aF0.3552183431690195
aF0.041882894560402305
aF0.9337086613550513
aF-0.015933848563900878
aa(lp28
g2
(g6
S'\xa4\xbe\x07f,\x84J\xc0'
p29
tp30
Rp31
aF0.16276808831495124
aF-0.3623343564398914
aF0.9154616787637256
aF0.0644226535054807
aa(lp32
g2
(g6
S'\x8al\xa0\xbf\xa8\xfa\xfb?'
p33
tp34
Rp35
aF0.004632130189502134
aF-0.02921811170611346
aF0.9995623177094605
aF0.00013540136009106238
aa(lp36
g2
(g6
S'$\x16\xfdP6\x00K\xc0'
p37
tp38
Rp39
aF0.29637586713246944
aF0.14400054674626947
aF0.943067970657696
aF-0.04525473055745012
aa(lp40
g2
(g6
S'Ikl\x06\x17eL\xc0'
p41
tp42
Rp43
aF0.15544569174769096
aF-0.17377599053744244
aF0.9720423224488836
aF0.02778966350989666
aa.