(lp0
(lp1
cnumpy.core.multiarray
scalar
p2
(cnumpy
dtype
p3
(S'f8'
p4
I0
I1
tp5
Rp6
(I3
S'<'
p7
NNNI-1
I-1
I0
tp8
bS'\x1fr\xb0\xa6(v;\xc0'
p9
tp10
Rp11
aF0.25765124063911027
aF-0.20787229523008896
aF0.941897880274403
aF0.056862379544724326
aa(lp12
g2
(g6
S'\x97\xda\xb8\x06\xe5\xa2!\xc0'
p13
tp14
Rp15
aF-0.14672193644502354
aF0.003582013703540574
aF0.9891711481081585
aF0.0005313135021810852
aa(lp16
g2
(g6
S"\t\xc0_8?'=\xc0"
p17
tp18
Rp19
aF0.20373014008402782
aF-0.3824743798560522
aF0.8970293398021223
aF0.08686623227261185
aa(lp20
g2
(g6
S'\xac\x01~\x96\xa3\x83C\xc0'
p21
tp22
Rp23
aF0.21585339091618236
aF-0.004113789075441494
aF0.9764166955353273
aF0.000909422509373577
aa(lp24
g2
(g6
S'q\n\x0c\x87*\xba8\xc0'
p25
tp26
Rp27
aF-0.04157178088091699
aF-0.017261524901307054
aF0.9989861414494082
aF-0.0007183206063582936
aa(lp28
g2
(g6
S'\x99e\xbb\xb1\xfd\xe7.\xc0'
p29
tp30
Rp31
aF0.49137956687193507
aF-0.10165125370998657
aF0.8630548194458859
aF0.057875059491692346
aa(lp32
g2
(g6
S'\x03\xe8\xd0\x1a\xcf\r>\xc0'
p33
tp34
Rp35
aF0.007455946590741218
aF0.07589076625941239
aF0.9970880996241629
aF-0.0005674899742300927
aa(lp36
g2
(g6
S'.\x05\x80\x9a>\x9a.\xc0'
p37
tp38
Rp39
aF-0.07759651755572092
aF-0.06872768527911852
aF0.994598680269268
aF-0.005361990864371445
aa(lp40
g2
(g6
S'\xa1\x1f]j\xf4\x056\xc0'
p41
tp42
Rp43
aF0.02013572052330206
aF-0.32158890951503294
aF0.9466405519580969
aF0.0068404257476507
aa(lp44
g2
(g6
S'eK/\xcc\xfd\xd29\xc0'
p45
tp46
Rp47
aF0.014143386043303261
aF0.203778063152047
aF0.9789105154582257
aF-0.002944203549560679
aa(lp48
g2
(g6
S'k\xd3\xce[\x9eZ0\xc0'
p49
tp50
Rp51
aF0.08405725065753747
aF-0.1384198812760617
aF0.9867295837654398
aF0.011791675093005256
aa(lp52
g2
(g6
S'\x08\x01\xd4\x8c\xd3\xbd8\xc0'
p53
tp54
Rp55
aF-0.003978002281759474
aF0.024705521933396733
aF0.9996868524788677
aF9.830940797058698e-05
aa(lp56
g2
(g6
S'n \xa8\xdd\x04\xd9\x19\xc0'
p57
tp58
Rp59
aF0.33582519114385934
aF0.0024066588024389923
aF0.9419208633076054
aF-0.0008580515453356406
aa(lp60
g2
(g6
S'\xa0\xfe\xbbgJz5\xc0'
p61
tp62
Rp63
aF0.12261755077692597
aF-0.21032613041787301
aF0.9695464451984147
aF0.02659973135258394
aa(lp64
g2
(g6
S'\xbe\xcaJk\x0b\xab\xf5\xbf'
p65
tp66
Rp67
aF0.2644985665800507
aF0.019026467682303646
aF0.9641842456491848
aF-0.005219410555341001
aa(lp68
g2
(g6
S'^\xc8\xc9\x19\xcd@B\xc0'
p69
tp70
Rp71
aF0.12576970710601024
aF-0.07402339357900603
aF0.9892491847870806
aF0.009411077282250766
aa(lp72
g2
(g6
S'\x88\xea[\x83Ot?\xc0'
p73
tp74
Rp75
aF0.08463101471501361
aF-0.05113888550670823
aF0.9950896891211601
aF0.0043492921483807
aa(lp76
g2
(g6
S'p\x13\xfd~\x12\x081\xc0'
p77
tp78
Rp79
aF0.20261201617004937
aF-0.3779320962900921
aF0.8993701422582192
aF0.08514134548922074
aa(lp80
g2
(g6
S'nc\x9c]\xce$,\xc0'
p81
tp82
Rp83
aF-0.1581093896569844
aF0.13836822352298636
aF0.9774224634829036
aF0.022382660708697794
aa(lp84
g2
(g6
S'\xbf \xfb\x06M\x106\xc0'
p85
tp86
Rp87
aF0.3800189872489528
aF-0.3901103346269515
aF0.8189184335518982
aF0.1810306475059775
aa.