(lp0
(lp1
cnumpy.core.multiarray
scalar
p2
(cnumpy
dtype
p3
(S'f8'
p4
I0
I1
tp5
Rp6
(I3
S'<'
p7
NNNI-1
I-1
I0
tp8
bS'\xa8\xce3\xc6*\xd3\x12\xc0'
p9
tp10
Rp11
aF-0.11256540688071141
aF0.30758347240528655
aF0.9441274194503706
aF0.03667223089573999
aa(lp12
g2
(g6
S'\x19\xcb\xb9\xb1|W\x1c@'
p13
tp14
Rp15
aF-0.08613607337241729
aF0.39822443939604885
aF0.9124607895979411
aF0.037592288810154924
aa.