(lp0
(lp1
cnumpy.core.multiarray
scalar
p2
(cnumpy
dtype
p3
(S'f8'
p4
I0
I1
tp5
Rp6
(I3
S'<'
p7
NNNI-1
I-1
I0
tp8
bS'\x13\xbd\x81\xb49\x810\xc0'
p9
tp10
Rp11
aF0.24591396724310927
aF-0.0738489031842328
aF0.9662915947414293
aF0.01879399226630835
aa(lp12
g2
(g6
S'\x9f\x83\xd8r\xf1\xf2?\xc0'
p13
tp14
Rp15
aF0.13855298419499049
aF0.1980440939649864
aF0.9699388029559335
aF-0.028290032461298062
aa(lp16
g2
(g6
S'\x16\x99\x89b]\xf6\x1c\xc0'
p17
tp18
Rp19
aF-0.24960969353498227
aF-0.23280914034398345
aF0.9378997686149334
aF-0.0619590921311956
aa(lp20
g2
(g6
S'\xc5:\x00\x1e8\xcb=\xc0'
p21
tp22
Rp23
aF-0.03205314059098734
aF0.047011300721481436
aF0.9983788137656059
aF0.001509306698629404
aa(lp24
g2
(g6
S'\xe5\x0ev\xa1\x80\x05F\xc0'
p25
tp26
Rp27
aF0.47457069712509675
aF-0.07060175456641439
aF0.8765483111301786
aF0.03822438929760779
aa(lp28
g2
(g6
S'k\xa1\x86\x08\x1fuF\xc0'
p29
tp30
Rp31
aF0.33504759851482674
aF0.06697300431146536
aF0.9395143900025141
aF-0.02388376857088765
aa(lp32
g2
(g6
S'\x0b\xc3>\x9b\xd3\x85@\xc0'
p33
tp34
Rp35
aF0.14431775315200512
aF-0.3042067392510108
aF0.9404527714190335
aF0.046682230556001666
aa(lp36
g2
(g6
S'\x01\xa2.\x0bLE:\xc0'
p37
tp38
Rp39
aF-0.029978293732897
aF0.05643227241859435
aF0.9979548220219001
aF0.0016952102452398301
aa(lp40
g2
(g6
S'i\xdc\xe3\x060\xe3B\xc0'
p41
tp42
Rp43
aF0.3964956048418547
aF-0.3009956608638896
aF0.8560113595166862
aF0.1394180758029489
aa(lp44
g2
(g6
S'\x18#\x8d\xbc)\x1c7\xc0'
p45
tp46
Rp47
aF-0.08674688150841456
aF0.2574155968950432
aF0.9621192872821615
aF0.023209180584403893
aa(lp48
g2
(g6
S'{\x9dK\x0frJC\xc0'
p49
tp50
Rp51
aF0.18137790665593953
aF0.1625643935479458
aF0.9694068975506767
aF-0.030416112648889854
aa(lp52
g2
(g6
S'{\xfa(\xfb\xf2\x14D\xc0'
p53
tp54
Rp55
aF0.13275570062694436
aF-0.04917191903227938
aF0.989906339018585
aF0.006594414345057236
aa(lp56
g2
(g6
S';@\x83.\xa2\xd6@\xc0'
p57
tp58
Rp59
aF0.12174060865903825
aF-0.07393632164522325
aF0.989762567950311
aF0.009094153578372859
aa(lp60
g2
(g6
S'\xf1\xb7\xfcs\xed\x87>\xc0'
p61
tp62
Rp63
aF0.27336991698110036
aF-0.4692474151971723
aF0.825172177962303
aF0.15545619491505708
aa(lp64
g2
(g6
S'\xfcr:+\xe5O,\xc0'
p65
tp66
Rp67
aF0.43481446005513524
aF0.02295642861780714
aF0.9001591102102798
aF-0.011088914172003448
aa(lp68
g2
(g6
S'\xf2\x08\x08#\x8d\xe2F\xc0'
p69
tp70
Rp71
aF0.3534511950859141
aF-0.02053252029529501
aF0.9351954066327729
aF0.007760136314858115
aa(lp72
g2
(g6
S'fVw\xff<^C\xc0'
p73
tp74
Rp75
aF0.27252005638114285
aF-0.3229570460201693
aF0.9010497626184721
aF0.09767748246725118
aa(lp76
g2
(g6
S'hru\\k\xb3!@'
p77
tp78
Rp79
aF-0.45535271850341547
aF-0.009905281911428433
aF0.8902416064511629
aF-0.005066486460784258
aa(lp80
g2
(g6
S'\xae\x05k\xc0\xfc\x19C\xc0'
p81
tp82
Rp83
aF0.14304131836893702
aF0.17795895455692165
aF0.9732346475295715
aF-0.026155545879888484
aa(lp84
g2
(g6
S'\xae\xaeU \xeajB\xc0'
p85
tp86
Rp87
aF0.46616930687228986
aF-0.2285083172541421
aF0.8453346849595257
aF0.12601347816907835
aa(lp88
g2
(g6
S'\r"\xc2V\xc5\x038\xc0'
p89
tp90
Rp91
aF-0.008535704987833534
aF0.17307064153607163
aF0.9848712833974077
aF0.0014999725985606208
aa(lp92
g2
(g6
S'y\xc3{\xb6[\xba@\xc0'
p93
tp94
Rp95
aF0.2504308534058901
aF-0.4162948780478173
aF0.86572589580462
aF0.12042273666894714
aa(lp96
g2
(g6
S'\xe3\xb3\xb1]\xbfaA\xc0'
p97
tp98
Rp99
aF0.11594644817457832
aF0.29748458992356014
aF0.9469596691588841
aF-0.03642423506689018
aa(lp100
g2
(g6
S'\x9f\xd0f@\x87\x93D\xc0'
p101
tp102
Rp103
aF0.44014591653391083
aF-0.13592039166432024
aF0.8850015012938712
aF0.06759853545703207
aa(lp104
g2
(g6
S'!\xd3\x19\x05y\x968\xc0'
p105
tp106
Rp107
aF0.018358210654818952
aF-0.3639901291442655
aF0.9311942158657872
aF0.007175954653984111
aa(lp108
g2
(g6
S'w-\xe3)\xf1%B\xc0'
p109
tp110
Rp111
aF0.0446673759637198
aF0.043941051431719474
aF0.9980331367294424
aF-0.0019665994968608718
aa.