(lp0
(lp1
cnumpy.core.multiarray
scalar
p2
(cnumpy
dtype
p3
(S'f8'
p4
I0
I1
tp5
Rp6
(I3
S'<'
p7
NNNI-1
I-1
I0
tp8
bS'}\x82OM\x9c\x01\x14\xc0'
p9
tp10
Rp11
aF0.053624621765588555
aF-0.12494527155197334
aF0.9906903347997886
aF0.006763105173228557
aa(lp12
g2
(g6
S'e\x97$Tf\nC\xc0'
p13
tp14
Rp15
aF0.113904660937973
aF-0.02196789962589479
aF0.9932455854017644
aF0.0025192623004594026
aa(lp16
g2
(g6
S'\xe3.\xd5\xe0\xcd\xce3\xc0'
p17
tp18
Rp19
aF0.1153191699239736
aF-0.48092802764088993
aF0.8667847419068015
aF0.06398384542248536
aa(lp20
g2
(g6
S'\xf2\x96\xb8Fn\xb6(\xc0'
p21
tp22
Rp23
aF0.06732928592279029
aF0.47199424142393187
aF0.8782818342358732
aF-0.03618318630309478
aa(lp24
g2
(g6
S'C.5\x80\xfa|@\xc0'
p25
tp26
Rp27
aF0.15140976472206708
aF0.18746478844408307
aF0.9700906865624299
aF-0.029259119693812966
aa(lp28
g2
(g6
S'\xf6_\xcf\xa8D\xcf@\xc0'
p29
tp30
Rp31
aF0.17667874826604113
aF-0.3445826354500802
aF0.9196002232452141
aF0.06620314694011542
aa(lp32
g2
(g6
S'\xf9K\x9a\xcf\x9bz\xec?'
p33
tp34
Rp35
aF-0.2357334393859795
aF-0.42627942526496293
aF0.8655853718599246
aF-0.1160928988919899
aa(lp36
g2
(g6
S'\x86\xb8\x86%\xbe+\x16\xc0'
p37
tp38
Rp39
aF0.06665464875350442
aF0.024911543900901653
aF0.997463684341066
aF-0.0016646923940101103
aa(lp40
g2
(g6
S'\xe3m\xd4>\xc59@\xc0'
p41
tp42
Rp43
aF0.14114959733703197
aF0.17744578157104018
aF0.9736159423782204
aF-0.025725134036705826
aa(lp44
g2
(g6
S'\x8c\xf2\x8d\xea\xd1=9\xc0'
p45
tp46
Rp47
aF0.09834911878892276
aF-0.21227637025004914
aF0.972010737406225
aF0.021478357337404972
aa(lp48
g2
(g6
S'\xf1, Q\xb8\xbd=\xc0'
p49
tp50
Rp51
aF0.17193644602696992
aF-0.1348628246419764
aF0.9755433894408294
aF0.02376914755519584
aa(lp52
g2
(g6
S'\xbb\xad,\x81_\xea6\xc0'
p53
tp54
Rp55
aF-0.09487296887451088
aF-0.18441473955002116
aF0.9780952664111121
aF-0.017887801368802053
aa(lp56
g2
(g6
S'\xfd\t\xbeg^\xc3A\xc0'
p57
tp58
Rp59
aF0.05897231242470713
aF-0.052657387294306364
aF0.9968649668441204
aF0.0031150938173903765
aa(lp60
g2
(g6
S'9\x88B)\xb0\xee9\xc0'
p61
tp62
Rp63
aF-0.04788826329128793
aF0.22796447007094256
aF0.972426286727755
aF0.01122637542079717
aa(lp64
g2
(g6
S'45\x0fnv\xdb=\xc0'
p65
tp66
Rp67
aF0.10634259641427095
aF-0.26994747441487643
aF0.9565139266556095
aF0.030012020238037573
aa(lp68
g2
(g6
S'\xfbf\xf9\x1c\x13v\x13@'
p69
tp70
Rp71
aF-0.0675932343123071
aF0.0775933312222972
aF0.9946771469523009
aF0.005272850828483645
aa(lp72
g2
(g6
S'\xe3\xaf_\xc9\xaa\x94>\xc0'
p73
tp74
Rp75
aF0.18585672349392285
aF-0.12055248148194994
aF0.9748826444765952
aF0.022982755251890457
aa(lp76
g2
(g6
S'\xa2~xR\x0fX9\xc0'
p77
tp78
Rp79
aF-0.04698668732588654
aF0.03496070978418999
aF0.9982821706647139
aF0.0016455146526595287
aa(lp80
g2
(g6
S'Oo!F\xc1\x917\xc0'
p81
tp82
Rp83
aF0.15721173940095018
aF-0.43809413792786117
aF0.8816206806317207
aF0.07812151297967525
aa(lp84
g2
(g6
S'\xef"T\x93r\x02,\xc0'
p85
tp86
Rp87
aF-0.04287492901346342
aF-0.13748692285449166
aF0.9895572753846461
aF-0.0059569488338858745
aa(lp88
g2
(g6
S"\x0c\x0b_'\\\xaa>\xc0"
p89
tp90
Rp91
aF-0.004159603536400219
aF0.0664278052420035
aF0.9977825252530526
aF0.0002769274131460146
aa.