(lp0
(lp1
cnumpy.core.multiarray
scalar
p2
(cnumpy
dtype
p3
(S'f8'
p4
I0
I1
tp5
Rp6
(I3
S'<'
p7
NNNI-1
I-1
I0
tp8
bS'5E\x1b)&\x1f3\xc0'
p9
tp10
Rp11
aF0.38690562130892586
aF-0.20034610155396163
aF0.8959240088978283
aF0.08651965136388341
aa(lp12
g2
(g6
S'\xeb\xc5`E\xa3\xdf>\xc0'
p13
tp14
Rp15
aF0.06587252569178095
aF0.3178183014779081
aF0.9456014825207266
aF-0.022139870353893597
aa(lp16
g2
(g6
S':5\xe8\xde\x99dG\xc0'
p17
tp18
Rp19
aF0.37912238328788783
aF0.17034593571094958
aF0.9067389716487316
aF-0.07122441976087893
aa(lp20
g2
(g6
S'\x8a\x809\xbf\xc4\xb5A\xc0'
p21
tp22
Rp23
aF0.2063861566609973
aF0.32160232528999577
aF0.9212959867009879
aF-0.07204445568829905
aa(lp24
g2
(g6
S'(=u\xfck=E\xc0'
p25
tp26
Rp27
aF0.3953070932210424
aF0.1444233817480155
aF0.904927555944097
aF-0.06308967702120677
aa(lp28
g2
(g6
S'\xc0\xd2\xc6W \x9fE\xc0'
p29
tp30
Rp31
aF0.24942823873400774
aF-0.2530587440100079
aF0.932289092061029
aF0.06770431763300211
aa.