(lp0
(lp1
cnumpy.core.multiarray
scalar
p2
(cnumpy
dtype
p3
(S'f8'
p4
I0
I1
tp5
Rp6
(I3
S'<'
p7
NNNI-1
I-1
I0
tp8
bS'&\xb6eX%}<\xc0'
p9
tp10
Rp11
aF0.48897338947093366
aF0.009119047288378763
aF0.8722360538528816
aF-0.005112115512369307
aa(lp12
g2
(g6
S'~.5\xb8\x9ff\x10@'
p13
tp14
Rp15
aF-0.13153947337896313
aF-0.044304267429487586
aF0.9903029171207225
aF-0.005884825648138351
aa(lp16
g2
(g6
S'\xb3\x8c\xd0\x08k\xd4C\xc0'
p17
tp18
Rp19
aF0.40254808873402714
aF-0.3188935835550215
aF0.844485013291057
aF0.15200980544301024
aa(lp20
g2
(g6
S'\xbeOd6\xb3\xfeB\xc0'
p21
tp22
Rp23
aF0.17224315566800408
aF0.15435104274100367
aF0.9725022903590231
aF-0.02733763297630065
aa(lp24
g2
(g6
S'\x19\xcc\xa7\xc9GN9\xc0'
p25
tp26
Rp27
aF-0.008549332995127194
aF-0.3523677648988843
aF0.9358170250736927
aF-0.0032191221981989425
aa(lp28
g2
(g6
S'\x9d\xc2\xa8\xb4T\x1f4\xc0'
p29
tp30
Rp31
aF-0.1421905657809939
aF-0.055218932550597635
aF0.9882659520929578
aF-0.00794483635156966
aa(lp32
g2
(g6
S'\xf3\xa3\xf0\xbcr\xc3E\xc0'
p33
tp34
Rp35
aF0.41747487756275525
aF-0.15521233298990902
aF0.8923852632764768
aF0.07261129511835744
aa(lp36
g2
(g6
S'L2\r\x9d\xb8\x8b9\xc0'
p37
tp38
Rp39
aF0.2545622196779402
aF-0.06315703625438515
aF0.9648479698377731
aF0.016663138483796084
aa(lp40
g2
(g6
S'\xd8J\xa7\xbc\xb6\x97A\xc0'
p41
tp42
Rp43
aF0.0978707312991947
aF-0.2362604751909872
aF0.9664522086859476
aF0.0239256377875987
aa(lp44
g2
(g6
S'\xd1\xddSb64<\xc0'
p45
tp46
Rp47
aF-0.07745027728121182
aF-0.037953458869005786
aF0.996269182489152
aF-0.00295051374152045
aa.