(lp0
(lp1
cnumpy.core.multiarray
scalar
p2
(cnumpy
dtype
p3
(S'f8'
p4
I0
I1
tp5
Rp6
(I3
S'<'
p7
NNNI-1
I-1
I0
tp8
bS"'\xf6\xaab4{:\xc0"
p9
tp10
Rp11
aF-0.14867249726322365
aF0.1317166481685177
aF0.9798713264572797
aF0.019984912799883528
aa(lp12
g2
(g6
S'@-\x0f\xea\xd6I\xf1?'
p13
tp14
Rp15
aF-0.025731544867096546
aF-0.009013285035088789
aF0.9996282281238656
aF-0.00023201200381896882
aa(lp16
g2
(g6
S'"@Ux"\x01>\xc0'
p17
tp18
Rp19
aF-0.07433947617068923
aF-0.1319336392049809
aF0.9884172676318568
aF-0.009922810890668564
aa(lp20
g2
(g6
S"\xa6|'\x17\x8f\xb3H\xc0"
p21
tp22
Rp23
aF0.26624038744497813
aF-0.13692557753198875
aF0.9533652345639217
aF0.03823835555509686
aa(lp24
g2
(g6
S'\xc9\xcfE8j\xaaC\xc0'
p25
tp26
Rp27
aF0.15063769938304888
aF-0.2715156716270881
aF0.9495958991163082
aF0.04307147509621397
aa(lp28
g2
(g6
S'\xdc9I\xc7,Z\xfc?'
p29
tp30
Rp31
aF-0.1376185411479492
aF0.052437516394380636
aF0.9890693658966346
aF0.007296125788967305
aa(lp32
g2
(g6
S'\x04\x15\x8a+\xef\xa5H\xc0'
p33
tp34
Rp35
aF0.203953236756044
aF0.0
aF0.9789806316862112
aF0.0
aa(lp36
g2
(g6
S'\n_)|\x95\x86)\xc0'
p37
tp38
Rp39
aF-0.278137579498027
aF0.028810036894202796
aF0.9600728129750932
aF0.00834640229231081
aa(lp40
g2
(g6
S'\x06\xefS\xd5\x17\xce\x0b\xc0'
p41
tp42
Rp43
aF-0.06731398241230022
aF-0.12269576052100038
aF0.9901237281820032
aF-0.008341523418450026
aa(lp44
g2
(g6
S'#z\x977\xef\x8e<\xc0'
p45
tp46
Rp47
aF-0.03291249308770765
aF-0.24231884800905626
aF0.9696033660622251
aF-0.00822534006095191
aa(lp48
g2
(g6
S'\xde\x8e\\\xdc=\x15\xee\xbf'
p49
tp50
Rp51
aF-0.07823092091837497
aF0.19512349149093758
aF0.9775289762816872
aF0.015615588696095004
aa(lp52
g2
(g6
S'\xbc\xe5\xd1\x9b\x84\xb5/\xc0'
p53
tp54
Rp55
aF-0.1520702726529635
aF-0.34477034293391723
aF0.9245497560287781
aF-0.056707948610486385
aa(lp56
g2
(g6
S"\xa1(M\x1f'9B\xc0"
p57
tp58
Rp59
aF-0.009911491483502594
aF-0.005190353307791358
aF0.9999374080022617
aF-5.1447362799713466e-05
aa(lp60
g2
(g6
S'\x04\x88\x85\x05\x1d\x03\xfa\xbf'
p61
tp62
Rp63
aF0.053468038065484114
aF0.17887386404294686
aF0.9823698520827081
aF-0.009735675979177108
aa(lp64
g2
(g6
S'\xf9X\xa4k2\xea4\xc0'
p65
tp66
Rp67
aF-0.013501560308498091
aF-0.4800411144765797
aF0.8771109584198528
aF-0.007389377587233069
aa(lp68
g2
(g6
S'0-M\xd4\xf0U\x1e\xc0'
p69
tp70
Rp71
aF-0.11491010023801229
aF-0.2889623690410309
aF0.9497758564321017
aF-0.03496055892220374
aa(lp72
g2
(g6
S'\xab\xde\x84\x9a\x8a\x15D\xc0'
p73
tp74
Rp75
aF0.20633998375698118
aF-0.14693234939398658
aF0.9668771674709118
aF0.03135663929949714
aa(lp76
g2
(g6
S'\xde6&\xc7\xeb\xa4C\xc0'
p77
tp78
Rp79
aF-0.004551339753601129
aF0.0475398824060118
aF0.9988589479822478
aF0.00021661732831505375
aa(lp80
g2
(g6
S'\x13w\x1c\x0c5}%\xc0'
p81
tp82
Rp83
aF-0.09104857175479741
aF-0.31858599529099096
aF0.9430095200319732
aF-0.030759816561999127
aa(lp84
g2
(g6
S'\x9e}\x01\xd3\xcd\xb1C\xc0'
p85
tp86
Rp87
aF0.15395162148408703
aF-0.2796231506341581
aF0.9465947496795353
aF0.04547715636432571
aa(lp88
g2
(g6
S'\xc0\x13\x11@\xc4\xaeB\xc0'
p89
tp90
Rp91
aF0.024374454287692797
aF0.10655478328396852
aF0.9940045960637063
aF-0.0026128799651092276
aa(lp92
g2
(g6
S'\x08\x8cly\xe3\xff(\xc0'
p93
tp94
Rp95
aF0.14818210359603276
aF-0.06434675614331423
aF0.9868172054022182
aF0.009662415321432135
aa(lp96
g2
(g6
S'V2\xefy\xc2e2\xc0'
p97
tp98
Rp99
aF0.013302108303200482
aF-0.44534795188401616
aF0.8952343081700326
aF0.00661733652803024
aa(lp100
g2
(g6
S'F\xb6\xd5\x1d\x8ei3\xc0'
p101
tp102
Rp103
aF0.018688841878900575
aF0.14048058392700433
aF0.9899034794250304
aF-0.0026521973855300816
aa(lp104
g2
(g6
S'aSOU\x16\x05=\xc0'
p105
tp106
Rp107
aF-0.11319160267102824
aF0.0
aF0.993573178525248
aF0.0
aa(lp108
g2
(g6
S'\x8d\x89\x8d6\xb8\xccG\xc0'
p109
tp110
Rp111
aF0.16857038480401226
aF0.0164621921290012
aF0.9855481181850718
aF-0.002815730668760205
aa(lp112
g2
(g6
S'\x12\xc1*/\xa3>1\xc0'
p113
tp114
Rp115
aF-0.00161143619262935
aF-0.2818133184188863
aF0.9594677862306129
aF-0.000473308418879809
aa(lp116
g2
(g6
S'\xa7}\x9f\x17\n\xd32\xc0'
p117
tp118
Rp119
aF0.09952394425532568
aF-0.40400932474310425
aF0.9082464231932343
aF0.04427058614001142
aa(lp120
g2
(g6
S'/)\xcf\xd5@%<\xc0'
p121
tp122
Rp123
aF-0.026883316282710498
aF-0.13988701431705464
aF0.9897951682533864
aF-0.0037993990780614837
aa.