(lp0
(lp1
cnumpy.core.multiarray
scalar
p2
(cnumpy
dtype
p3
(S'f8'
p4
I0
I1
tp5
Rp6
(I3
S'<'
p7
NNNI-1
I-1
I0
tp8
bS'\xc98\xe1g\xe3\x93C\xc0'
p9
tp10
Rp11
aF0.13522338385896154
aF0.17059987974195148
aF0.9757311780497224
aF-0.023642877816893275
aa(lp12
g2
(g6
S'\xf4\xde\xfa\xc2\xb7,=\xc0'
p13
tp14
Rp15
aF0.0297362444759898
aF0.23134253495192067
aF0.9723920699546665
aF-0.007074572479137574
aa.