(lp0
(lp1
cnumpy.core.multiarray
scalar
p2
(cnumpy
dtype
p3
(S'f8'
p4
I0
I1
tp5
Rp6
(I3
S'<'
p7
NNNI-1
I-1
I0
tp8
bS'dlH\x99\xf2\x97@\xc0'
p9
tp10
Rp11
aF0.4052973965272154
aF0.12636735360006718
aF0.9036331593184804
aF-0.056678264727130126
aa(lp12
g2
(g6
S'\xa4\xd2\xa4\x8f\x14:5\xc0'
p13
tp14
Rp15
aF-0.10510622012095759
aF-0.31456688725887305
aF0.9427461956816195
aF-0.03507087766198585
aa(lp16
g2
(g6
S'\x08\x13\x19\xb2L#%\xc0'
p17
tp18
Rp19
aF0.1576967154160064
aF-0.05956529074470243
aF0.9856433938540402
aF0.009530070167190388
aa(lp20
g2
(g6
S'$?j\xe3\x12\xb8@\xc0'
p21
tp22
Rp23
aF0.19650388913294975
aF-0.3152570846669194
aF0.9260258390237632
aF0.0668979639695829
aa(lp24
g2
(g6
S'\xb7\x9d\xaav\xf2\xeaD\xc0'
p25
tp26
Rp27
aF0.34992774162598816
aF-0.236848431507992
aF0.9016675687799696
aF0.09191839610849689
aa(lp28
g2
(g6
S'\xa6\x08?$\xcf\x04>\xc0'
p29
tp30
Rp31
aF0.14703496100602576
aF-0.3058880411440536
aF0.9394259345981645
aF0.047876298221308386
aa.