(lp0
(lp1
cnumpy.core.multiarray
scalar
p2
(cnumpy
dtype
p3
(S'f8'
p4
I0
I1
tp5
Rp6
(I3
S'<'
p7
NNNI-1
I-1
I0
tp8
bS'\x91p\x11*_\xf49\xc0'
p9
tp10
Rp11
aF0.4638236034340215
aF-0.27741639598901285
aF0.8268563323620384
aF0.1556162387630072
aa(lp12
g2
(g6
S'4\x8e\xa6*~\xae1\xc0'
p13
tp14
Rp15
aF0.4214541098321161
aF-0.03817218508501052
aF0.9058719104052496
aF0.017759491270804895
aa(lp16
g2
(g6
S'\xc3~\xe0\x90\x81u=\xc0'
p17
tp18
Rp19
aF-0.0956778198697106
aF-0.10728600076645346
aF0.9895594300989415
aF-0.010373192699349072
aa(lp20
g2
(g6
S'\xdbR_\x1dSM.\xc0'
p21
tp22
Rp23
aF0.41190716378808917
aF-0.2274643688020492
aF0.8758705957151895
aF0.10697265495002314
aa(lp24
g2
(g6
S'%\xaeR\x82gw\xde\xbf'
p25
tp26
Rp27
aF0.2385447580449134
aF0.0627979460618772
aF0.9689756511516482
aF-0.015459749510994387
aa(lp28
g2
(g6
S'u\xc3p\xa6\xeb\xc6:\xc0'
p29
tp30
Rp31
aF0.43067644106694125
aF-0.3119319126709575
aF0.8313253891168867
aF0.16159945042297796
aa(lp32
g2
(g6
S'\xe6i/\xd3a\x1a1\xc0'
p33
tp34
Rp35
aF0.08792957861633076
aF-0.08136678816292844
aF0.9927718264303471
aF0.0072066382284925205
aa(lp36
g2
(g6
S'\xf5\xc8\xce4Q\x12\xe7\xbf'
p37
tp38
Rp39
aF0.33771231158110737
aF0.0033917768549257704
aF0.9412424817705689
aF-0.0012169497491120321
aa(lp40
g2
(g6
S'\xd7\xf9\x0f\x9a\x85\xb43\xc0'
p41
tp42
Rp43
aF0.36691728334438856
aF-0.2885814918761008
aF0.8760616334281756
aF0.12086539688800416
aa(lp44
g2
(g6
S'\x06;\x11\xd3\xc3s\xfe?'
p45
tp46
Rp47
aF0.15364521474992557
aF0.09728817517605286
aF0.9832075176885235
aF-0.015203161386192633
aa(lp48
g2
(g6
S'\x01\xcd9\xabJ\x083\xc0'
p49
tp50
Rp51
aF0.4801865811769949
aF0.11059489430699881
aF0.8680129386889908
aF-0.06118132786459935
aa(lp52
g2
(g6
S'\x98\xca\xb9\xfb\x95\xef7\xc0'
p53
tp54
Rp55
aF0.49045140719553687
aF-0.14892748565443048
aF0.8543824513661595
aF0.08549063103123751
aa(lp56
g2
(g6
S'\x91\xbf\xa8fs7@\xc0'
p57
tp58
Rp59
aF-0.07771105212492471
aF-0.022144530254007044
aF0.996728464164317
aF-0.0017265231271405492
aa(lp60
g2
(g6
S'y\x85\xf8fMa?\xc0'
p61
tp62
Rp63
aF0.03567306593561335
aF-0.28560582465710693
aF0.9576239088833584
aF0.01063928680150398
aa(lp64
g2
(g6
S'N\xd1U\x06\x99\x8c2\xc0'
p65
tp66
Rp67
aF-0.06587688620843339
aF-0.455294933560577
aF0.8872564474482806
aF-0.0338046712601598
aa(lp68
g2
(g6
S'\xa4\x17\xe2\x18\x12e(\xc0'
p69
tp70
Rp71
aF-0.12560344990900216
aF-0.2534036424540044
aF0.9585968509120166
aF-0.03320308394660058
aa(lp72
g2
(g6
S'.}p7\xec):\xc0'
p73
tp74
Rp75
aF-0.020260984380104066
aF-0.1200740192130241
aF0.9925551444121993
aF-0.002451065657600492
aa(lp76
g2
(g6
S'Rn\x85\xd7\xf2\x9b\xfb\xbf'
p77
tp78
Rp79
aF0.23326703551712263
aF0.11032333966805799
aF0.9657666319725077
aF-0.02664701548051401
aa(lp80
g2
(g6
S'\x01#\x06\x89\x0e\x15B\xc0'
p81
tp82
Rp83
aF-0.0397689274376118
aF-0.08489399856892518
aF0.9955902479822953
aF-0.003391097166551006
aa(lp84
g2
(g6
S'Z\xa5l_\xeb&;\xc0'
p85
tp86
Rp87
aF0.0844703752559239
aF-0.40728988192894894
aF0.9085955938375926
aF0.03786495267841768
aa(lp88
g2
(g6
S"o\xcf\x901\x9fN'\xc0"
p89
tp90
Rp91
aF0.38289798502482336
aF-0.05879427620024384
aF0.9215940890486346
aF0.0244274677491755
aa(lp92
g2
(g6
S'\xc3-0\xd4\x9a\x9b\xf6?'
p93
tp94
Rp95
aF0.21297847356095795
aF0.08878012334028247
aF0.9728208884938079
aF-0.01943652256569616
aa(lp96
g2
(g6
S'\x93\xa5m\xe6.7\xf8?'
p97
tp98
Rp99
aF0.323610848609085
aF-0.0015592021780104093
aF0.9461888306112485
aF0.0005332706576691399
aa(lp100
g2
(g6
S'\xcb\x1b\x06m\x00\xfc\x06\xc0'
p101
tp102
Rp103
aF0.2815697999270937
aF0.15619553460705196
aF0.9455993924813146
aF-0.04651012445481548
aa(lp104
g2
(g6
S'U\x012\xc01\x9aC\xc0'
p105
tp106
Rp107
aF0.4543347930178824
aF-0.11718310514296966
aF0.8810199692557719
aF0.06043036897958435
aa(lp108
g2
(g6
S'\xb2\t\xc29`t\x1c\xc0'
p109
tp110
Rp111
aF-0.12358131638901217
aF-0.046375568917904564
aF0.9912333404190976
aF-0.005781841289500569
aa(lp112
g2
(g6
S"\xf5]'\x15-\xa4A\xc0"
p113
tp114
Rp115
aF-0.03782553271348962
aF0.03712045747308981
aF0.9985936729497259
aF0.001406078484699614
aa(lp116
g2
(g6
S'd\xd3\xdd\x15X-C\xc0'
p117
tp118
Rp119
aF0.3567915371587523
aF-0.4078818586201651
aF0.8215560335329799
aF0.1771380032235082
aa.