(lp0
(lp1
cnumpy.core.multiarray
scalar
p2
(cnumpy
dtype
p3
(S'f8'
p4
I0
I1
tp5
Rp6
(I3
S'<'
p7
NNNI-1
I-1
I0
tp8
bS'\xcf\x88\xfc\xe6\x16\x1a2\xc0'
p9
tp10
Rp11
aF0.17417073342303652
aF0.16825032878503526
aF0.9697645378132034
aF-0.030217936437706337
aa(lp12
g2
(g6
S'.$JQ\xa9\x91<\xc0'
p13
tp14
Rp15
aF-0.07042368069762478
aF-0.006194768366562181
aF0.997497838977351
aF-0.0004373527163621539
aa.