(lp0
(lp1
cnumpy.core.multiarray
scalar
p2
(cnumpy
dtype
p3
(S'f8'
p4
I0
I1
tp5
Rp6
(I3
S'<'
p7
NNNI-1
I-1
I0
tp8
bS'\xbd\x1f\xcbo\xe8\xfe\x14\xc0'
p9
tp10
Rp11
aF-0.11725430623502843
aF0.13430117042703255
aF0.9838487862902386
aF0.01600590536320388
aa(lp12
g2
(g6
S'\xdcc7?\x91\xdf:\xc0'
p13
tp14
Rp15
aF0.07956089135432332
aF-0.2660287801670779
aF0.9604233931492815
aF0.022037662792206456
aa(lp16
g2
(g6
S'}\x7flZ-\xb2*\xc0'
p17
tp18
Rp19
aF0.03925021256119759
aF-0.02782079043479829
aF0.9988414435049386
aF0.0010932385167699327
aa(lp20
g2
(g6
S'1?\x14\x1eX\xb91\xc0'
p21
tp22
Rp23
aF-0.11550027745094747
aF0.134175557591939
aF0.9840775397275525
aF0.01574806202089284
aa(lp24
g2
(g6
S'0\x12E\x02\xca\x93*\xc0'
p25
tp26
Rp27
aF-0.19532700728104596
aF0.004350800872411024
aF0.9807281376032307
aF0.0008665285323192038
aa(lp28
g2
(g6
S'\x81\x1b\xef#?\xa8@\xc0'
p29
tp30
Rp31
aF0.2836713770510833
aF-0.2005450425750589
aF0.9357436388962748
aF0.06079537816041786
aa(lp32
g2
(g6
S'\xb9A\x88p\xcb\x86!\xc0'
p33
tp34
Rp35
aF-0.0862389940520815
aF-0.2078256612869554
aF0.9741831742967909
aF-0.018397644755596052
aa(lp36
g2
(g6
S'pWKv\x9f\x85@\xc0'
p37
tp38
Rp39
aF0.48081030623383686
aF-0.13017671196595584
aF0.8640766696817068
aF0.07243605450897542
aa(lp40
g2
(g6
S'\x0b\x11T\x9b,\xb2>\xc0'
p41
tp42
Rp43
aF0.1743156357820081
aF-0.32757967495301527
aF0.9265568250520431
aF0.06162844821240287
aa(lp44
g2
(g6
S"\x8c\xa8\xa1c'\x0e8\xc0"
p45
tp46
Rp47
aF0.1281559754189783
aF-0.12406140858397897
aF0.9838311088978333
aF0.01616050832829726
aa(lp48
g2
(g6
S'u\x08\x93k\x91\xfaB\xc0'
p49
tp50
Rp51
aF0.4160569416329156
aF-0.1745814806682329
aF0.8886716320887696
aF0.08173529376857092
aa(lp52
g2
(g6
S'P\xcb\xf8\x8b;\xf8\xf7\xbf'
p53
tp54
Rp55
aF-0.01881456067739245
aF-0.046055751763681506
aF0.998761296465599
aF-0.0008675934271436517
aa(lp56
g2
(g6
S'*\xd3\x16|_\x8b1\xc0'
p57
tp58
Rp59
aF0.03927945457508242
aF-0.11523308345594842
aF0.9925510893345557
aF0.004560261648787959
aa(lp60
g2
(g6
S'o\x18\xd1\xdax\x967\xc0'
p61
tp62
Rp63
aF0.015144055261506596
aF-0.2865386141821248
aF0.9579382862454172
aF0.004529891612051974
aa(lp64
g2
(g6
S'\x84\x0f\xf2\x0c\x9c.-\xc0'
p65
tp66
Rp67
aF-0.12011588193405519
aF-0.1353285158620622
aF0.9833540145784518
aF-0.016530266610607598
aa(lp68
g2
(g6
S'\xaa&\xfa\x19WjD\xc0'
p69
tp70
Rp71
aF0.3014932595149587
aF-0.006507706247009109
aF0.9534438785498693
aF0.002057834354509718
aa.