(lp0
(lp1
cnumpy.core.multiarray
scalar
p2
(cnumpy
dtype
p3
(S'f8'
p4
I0
I1
tp5
Rp6
(I3
S'<'
p7
NNNI-1
I-1
I0
tp8
bS'\x04\xcb\xb4-\xf5w\x13\xc0'
p9
tp10
Rp11
aF-0.05498742816502536
aF-0.1324349675200611
aF0.9896379209014564
aF-0.007358507701923394
aa(lp12
g2
(g6
S'\xfa\x86\xfe\xe7b\x8aH\xc0'
p13
tp14
Rp15
aF0.27258163223501164
aF0.12209466184200522
aF0.9537161133890407
aF-0.03489587912470149
aa(lp16
g2
(g6
S'\xee\x07\t\x13I\xe6B\xc0'
p17
tp18
Rp19
aF0.06350776913793359
aF0.17311198994137594
aF0.982788819972142
aF-0.011186488967708056
aa(lp20
g2
(g6
S'\xfdc-H\xa0\x1cF\xc0'
p21
tp22
Rp23
aF0.12150912983003165
aF-0.03584906731110933
aF0.9919330074252583
aF0.004391414482221143
aa(lp24
g2
(g6
S's\xc6\xfd\x83!L=\xc0'
p25
tp26
Rp27
aF-0.06860021220571988
aF-0.21042636206508575
aF0.9750874810195129
aF-0.014804100526703053
aa(lp28
g2
(g6
S'\xc9&\xe7Z\t\x0f\x13\xc0'
p29
tp30
Rp31
aF-0.08949847733040547
aF0.002411206869850147
aF0.9959840167850609
aF0.00021666948439301323
aa(lp32
g2
(g6
S'C\x02\xf3\xdc\x16\xc1F\xc0'
p33
tp34
Rp35
aF0.17108386291000294
aF0.174100787860003
aF0.9692651208230166
aF-0.030730328248500527
aa(lp36
g2
(g6
S'\xba\x1c\xfeu:4@\xc0'
p37
tp38
Rp39
aF0.10927084371394027
aF0.13477287008192634
aF0.9847195012424617
aF-0.014955269195891824
aa(lp40
g2
(g6
S'\x19\x04db<\x7fF\xc0'
p41
tp42
Rp43
aF0.150854189751005
aF-0.07985824821660265
aF0.9852492915230328
aF0.012227312857100405
aa(lp44
g2
(g6
S'\xdb\x9a\xb9\xb1\x80\xf4D\xc0'
p45
tp46
Rp47
aF0.36547818932008425
aF-0.12753609364202942
aF0.9206502788642121
aF0.05062906257371167
aa(lp48
g2
(g6
S'\x81\x1a\xb23C\x12C\xc0'
p49
tp50
Rp51
aF0.04734690468088394
aF0.0
aF0.9988785064346611
aF0.0
aa(lp52
g2
(g6
S'\xa4\x08\xd9k\x18Y5\xc0'
p53
tp54
Rp55
aF-0.055204610324888034
aF-0.34317494434392565
aF0.9374299927207969
aF-0.020209337468295622
aa(lp56
g2
(g6
S'\x1f1>\x1f\x07\xc1>\xc0'
p57
tp58
Rp59
aF0.039653314088486505
aF-0.373060994332873
aF0.9268216398346845
aF0.015961112846994568
aa(lp60
g2
(g6
S'\x91\xfd\xe5V\xee\x8b0\xc0'
p61
tp62
Rp63
aF-0.06964966498138964
aF-0.2658363925139604
aF0.9613058630558569
aF-0.019260691513497134
aa(lp64
g2
(g6
S'\xcc\xc3\xe9\xffol9\xc0'
p65
tp66
Rp67
aF-0.14371392599797486
aF-0.18435727850496772
aF0.9719133572978298
aF-0.027260360279195227
aa(lp68
g2
(g6
S']\xc1\x1d:\xb96C\xc0'
p69
tp70
Rp71
aF0.0
aF0.14131119559003105
aF0.9899652246422175
aF0.0
aa(lp72
g2
(g6
S'/I\x89\xc9\x1b]!\xc0'
p73
tp74
Rp75
aF0.08752509211820661
aF0.0225135682700017
aF0.9959059105280752
aF-0.0019786027132801492
aa(lp76
g2
(g6
S'\x87\xae\xcfm\xcb\x9aG\xc0'
p77
tp78
Rp79
aF0.25070759076794596
aF0.0
aF0.9680628615597915
aF0.0
aa(lp80
g2
(g6
S'\xa9\x9c/\x1a\xae\xca;\xc0'
p81
tp82
Rp83
aF0.19878283180701298
aF-0.2703255295840177
aF0.9402890763790615
aF0.05714846171260373
aa(lp84
g2
(g6
S't\x0c\x94\r\x1co?\xc0'
p85
tp86
Rp87
aF0.0
aF-0.2404640107169853
aF0.9706580549039407
aF0.0
aa(lp88
g2
(g6
S'\x95\x8e\x08\xc0\xf9\x12=\xc0'
p89
tp90
Rp91
aF0.036487755425207886
aF-0.41940406935909064
aF0.9069091140161961
aF0.01687392140030365
aa(lp92
g2
(g6
S'\xbdC\x0e\xc7\xb6\x1bA\xc0'
p93
tp94
Rp95
aF-0.04925943030861336
aF0.04036398963631095
aF0.9979680793422707
aF0.0019923554426505403
aa(lp96
g2
(g6
S'\xeb\xdd~J\x14\xbd3\xc0'
p97
tp98
Rp99
aF-0.10377261826405343
aF-0.06656813275323428
aF0.992346445910511
aF-0.0069612275604335845
aa(lp100
g2
(g6
S'\x95o\x98)\x92<@\xc0'
p101
tp102
Rp103
aF-0.032876128298597374
aF0.16171960656298706
aF0.9862742363709212
aF0.005390706091349569
aa(lp104
g2
(g6
S';>f. \xcf@\xc0'
p105
tp106
Rp107
aF-0.02248437170380708
aF-0.15989667423405038
aF0.9868709313323109
aF-0.0036430055273911476
aa(lp108
g2
(g6
S'\x08\xd4\x022\x1dLB\xc0'
p109
tp110
Rp111
aF0.4594034358457957
aF-0.2837535109158738
aF0.8267849183076323
aF0.1576677742439299
aa.