(lp0
(lp1
cnumpy.core.multiarray
scalar
p2
(cnumpy
dtype
p3
(S'f8'
p4
I0
I1
tp5
Rp6
(I3
S'<'
p7
NNNI-1
I-1
I0
tp8
bS'\xd3W\x8d[\xcbkE\xc0'
p9
tp10
Rp11
aF0.358528279282989
aF0.10347919176799683
aF0.9269020693599715
aF-0.040026037046198774
aa(lp12
g2
(g6
S'Z\x1f\x0c\x0f0\xd6C\xc0'
p13
tp14
Rp15
aF0.10726494066902537
aF0.15282733304903615
aF0.9822726304742323
aF-0.016688864479703948
aa(lp16
g2
(g6
S'\xe3Z`\xfd\x0c\xd0D\xc0'
p17
tp18
Rp19
aF0.07104927725032055
aF-0.11530230478803336
aF0.9907517391892865
aF0.008268615735342393
aa(lp20
g2
(g6
S'\xafyt}00H\xc0'
p21
tp22
Rp23
aF0.26498938515408194
aF0.011854717710303666
aF0.9641729493152981
aF-0.0032581025628810076
aa(lp24
g2
(g6
S'\xec\x9c\xc1\x7fk\xb0F\xc0'
p25
tp26
Rp27
aF0.32185561884902264
aF-0.010144513890800715
aF0.9467281316640667
aF0.003448792411520243
aa(lp28
g2
(g6
S'tP@\xf8\xdb\x9dE\xc0'
p29
tp30
Rp31
aF0.0764978623216847
aF0.08031455931828395
aF0.9938105602008014
aF-0.0061821561846887646
aa(lp32
g2
(g6
S'\x04kgCqYH\xc0'
p33
tp34
Rp35
aF0.2765577565558834
aF-0.14225476405694001
aF0.9495065192135995
aF0.04143379493548253
aa(lp36
g2
(g6
S'\xae[c\x04\xab\xf95\xc0'
p37
tp38
Rp39
aF-0.10832072767958432
aF-0.2950394698611676
aF0.9487273477017178
aF-0.03368606391180832
aa(lp40
g2
(g6
S'^\xfa\x0e\xaeYe@\xc0'
p41
tp42
Rp43
aF-0.014228612266700896
aF0.12007402263400756
aF0.9926614797790625
aF0.0017211171644701084
aa(lp44
g2
(g6
S'f\xb9\x1e\\\x0b,>\xc0'
p45
tp46
Rp47
aF-0.1228255173289948
aF-0.10107350074199571
aF0.9871878726619582
aF-0.012575524234799467
aa(lp48
g2
(g6
S'NA[<q\x9a\x1d\xc0'
p49
tp50
Rp51
aF0.10719360362397848
aF0.06644245336208666
aF0.9919896085028007
aF-0.007179718364428558
aa(lp52
g2
(g6
S'\xba\xb1\x8d\x8c\x00\xd9<\xc0'
p53
tp54
Rp55
aF0.03610104402459217
aF-0.2521502515899453
aF0.9669686369647903
aF0.009413839276167959
aa(lp56
g2
(g6
S'\xd9"g\xe0\xda$@\xc0'
p57
tp58
Rp59
aF0.09453755709248798
aF0.17849144837997735
aF0.9792377209378756
aF-0.01723191941129781
aa(lp60
g2
(g6
S'\xc3!\xa2\xa3n\x9aB\xc0'
p61
tp62
Rp63
aF0.13531844690099748
aF-0.02458264072339954
aF0.9904914601999816
aF0.0033584184186199375
aa(lp64
g2
(g6
S'\x89\xb3\xf5\xad\xd2\xbcG\xc0'
p65
tp66
Rp67
aF0.2354790830350872
aF-0.20028799277907416
aF0.9497200375723516
aF0.04966056418381839
aa(lp68
g2
(g6
S'\xd1\xadY\xf7eXC\xc0'
p69
tp70
Rp71
aF0.3340070545420016
aF-0.44684856557000213
aF0.8091622668350038
aF0.18445073297400086
aa(lp72
g2
(g6
S'\x15D\xa5\x9dn\xd59\xc0'
p73
tp74
Rp75
aF-0.03400113360801177
aF0.03365832694931165
aF0.9988542071963458
aF0.0011457340454503965
aa(lp76
g2
(g6
S't\xb0X< \x1bE\xc0'
p77
tp78
Rp79
aF0.27273068704490394
aF-0.2237859675739212
aF0.9334143421246712
aF0.06538714687907697
aa(lp80
g2
(g6
S'\x8f\xa0\xa5\x89\x06rF\xc0'
p81
tp82
Rp83
aF0.17838674498807508
aF0.07473409420113146
aF0.9810241135674129
aF-0.01358944354150572
aa(lp84
g2
(g6
S'=7\x1d\xa7mfC\xc0'
p85
tp86
Rp87
aF0.3424948215499238
aF-0.1860542121219586
aF0.9182950704937958
aF0.06939229690648457
aa(lp88
g2
(g6
S'\x9d\xb3M-J*0\xc0'
p89
tp90
Rp91
aF0.15378166882096544
aF-0.018972863635295736
aF0.987918269110778
aF0.0029533603369593367
aa(lp92
g2
(g6
S'q\xe0\xb9\xc2\xc2\x8eA\xc0'
p93
tp94
Rp95
aF0.09262109532524039
aF-0.3589441272761565
aF0.9280609726204045
aF0.03582285993021562
aa(lp96
g2
(g6
S'\t\x0e3\xafc\xacD\xc0'
p97
tp98
Rp99
aF0.25738642196100703
aF-0.18248787468700498
aF0.9476252564630258
aF0.04956590255120135
aa(lp100
g2
(g6
S'\xd1_l\xc1c\xee6\xc0'
p101
tp102
Rp103
aF-0.009243952767614099
aF0.11441986165005075
aF0.9933889021654406
aF0.0010647308365004722
aa(lp104
g2
(g6
S'\x07Y\xb7Z\xd8\xdc?\xc0'
p105
tp106
Rp107
aF0.23279614667502482
aF-0.31686817098803377
aF0.9159226513490976
aF0.08053702908350859
aa.