(lp0
(lp1
cnumpy.core.multiarray
scalar
p2
(cnumpy
dtype
p3
(S'f8'
p4
I0
I1
tp5
Rp6
(I3
S'<'
p7
NNNI-1
I-1
I0
tp8
bS'\xb2\x8f\xce\xc6T\xe1;\xc0'
p9
tp10
Rp11
aF0.3652871646168843
aF-0.23034477309492707
aF0.897055467734716
aF0.0937979780232703
aa(lp12
g2
(g6
S'\x85t\xae\xcc\x0c\\B\xc0'
p13
tp14
Rp15
aF0.0327047078317957
aF-0.031062245813818938
aF0.9989817339922268
aF0.0010169171661233518
aa(lp16
g2
(g6
S'\xeb\x87*\xe73B@\xc0'
p17
tp18
Rp19
aF0.12122598735599316
aF-0.4332488814679756
aF0.8911375258469497
aF0.05893705730429668
aa(lp20
g2
(g6
S'\xa0\x9f\x85\x8aBXG\xc0'
p21
tp22
Rp23
aF0.24739231126993827
aF-0.22111974767594486
aF0.9415559591847651
aF0.0580988574405855
aa(lp24
g2
(g6
S'\xb9:d\t\xaf\x166\xc0'
p25
tp26
Rp27
aF-0.04937418604899607
aF0.27443018679197817
aF0.9602349427029236
aF0.014110887343898877
aa(lp28
g2
(g6
S'=\xad\xc1\xffw\xd6<\xc0'
p29
tp30
Rp31
aF0.24108960129093843
aF-0.2928362699329252
aF0.9220957673277645
aF0.07656447634098044
aa(lp32
g2
(g6
S'\xf6\xf2NK\xcaHA\xc0'
p33
tp34
Rp35
aF-0.035262689912212715
aF-0.016442254990005924
aF0.9992426423423603
aF-0.0005802375865502092
aa(lp36
g2
(g6
S'$\xf1=b\xde17\xc0'
p37
tp38
Rp39
aF-0.014721462581598467
aF-0.45223693276595295
aF0.8917450852319072
aF-0.007465798459669223
aa(lp40
g2
(g6
S'\xf6G4\xd9\\\xb5G\xc0'
p41
tp42
Rp43
aF0.29560453515012386
aF-0.1593950170660668
aF0.9405858595173942
aF0.05009419336722099
aa(lp44
g2
(g6
S'\xb1p{\xc3.jH\xc0'
p45
tp46
Rp47
aF0.23395365699790946
aF0.09541811965656308
aF0.9672788885376257
aF-0.02307857465109107
aa(lp48
g2
(g6
S'\xc5,\x91I\\\xc4C\xc0'
p49
tp50
Rp51
aF0.24473792448405263
aF0.007770529628131672
aF0.9695561458072085
aF-0.001961457623210422
aa(lp52
g2
(g6
S'Y\xf1\x9b\xf5\xb2\xe41\xc0'
p53
tp54
Rp55
aF0.20236040344591222
aF-0.016226301018347343
aF0.9791709395806848
aF0.0033534091829907856
aa(lp56
g2
(g6
S'\x1f\x7fiA\x161E\xc0'
p57
tp58
Rp59
aF0.18484445186703846
aF0.15541878721103236
aF0.969948597145202
aF-0.029618374227506166
aa(lp60
g2
(g6
S'\t-\xe5\xc2H\xbbA\xc0'
p61
tp62
Rp63
aF0.09070518985011225
aF-0.2998977400800405
aF0.9492168644391282
aF0.028657604461803873
aa(lp64
g2
(g6
S'\n\x1d\xe0K\x8e\xbaA\xc0'
p65
tp66
Rp67
aF0.037450368126917676
aF-0.0366733081545173
aF0.9986243772754712
aF0.001375320813380649
aa(lp68
g2
(g6
S'\xc0\xbeJ\xb3$\xdfG\xc0'
p69
tp70
Rp71
aF0.30448817688592067
aF-0.207312160433946
aF0.9271858186187585
aF0.06808139264998227
aa(lp72
g2
(g6
S'5\n\xb2d\xbe10\xc0'
p73
tp74
Rp75
aF0.0861092604535884
aF-0.4964432185139331
aF0.8623642097568838
aF0.04957111846679332
aa(lp76
g2
(g6
S'n*\xed\xdb3\xa3G\xc0'
p77
tp78
Rp79
aF0.24925367902410817
aF0.03365900461121461
aF0.96781430534842
aF-0.008668636829663763
aa(lp80
g2
(g6
S'vom\xaa\xb4\x01B\xc0'
p81
tp82
Rp83
aF0.00893440100058064
aF0.15400763540901102
aF0.9880282816160706
aF-0.0013926382447700995
aa(lp84
g2
(g6
S'\xcabf;\xb9\xd1<\xc0'
p85
tp86
Rp87
aF0.3186813425230177
aF-0.1689173865600094
aF0.9308948172990518
aF0.05782696232060322
aa(lp88
g2
(g6
S'/\xa9t\x88\xf0\x83D\xc0'
p89
tp90
Rp91
aF0.2473428563439285
aF-0.20192682420394162
aF0.9461821753457265
aF0.05278598431938474
aa(lp92
g2
(g6
S'\x80\x9dP\xc6DdE\xc0'
p93
tp94
Rp95
aF0.1939332535859913
aF0.16577349476299255
aF0.9663344215689567
aF-0.03326901379069851
aa(lp96
g2
(g6
S'tx\xd2w\x10\xea>\xc0'
p97
tp98
Rp99
aF-0.07168067968518727
aF0.016730532403897026
aF0.9972865803738227
aF0.0012025188725197863
aa(lp100
g2
(g6
S'\xd8o\xf9\xfb\xec\xf7D\xc0'
p101
tp102
Rp103
aF0.06363841449263112
aF-0.13608874393006654
aF0.9886117864224833
aF0.008760235324874284
aa(lp104
g2
(g6
S'1*/\x0e\xec\x93A\xc0'
p105
tp106
Rp107
aF0.045749128156600004
aF-0.31476897729500003
aF0.9479434241490001
aF0.015191208583900002
aa(lp108
g2
(g6
S'\x10C|ia\xfb@\xc0'
p109
tp110
Rp111
aF0.08495052455598447
aF-0.23026434282095792
aF0.969202972426823
aF0.02018264209429631
aa(lp112
g2
(g6
S'\x95\xf0c\xe9\x18Q.\xc0'
p113
tp114
Rp115
aF0.19138439533805487
aF0.040256157265711544
aF0.9806578060862812
aF-0.007856359546712254
aa(lp116
g2
(g6
S'\x05\xd4|\x0c\x9a\xd4H\xc0'
p117
tp118
Rp119
aF0.21623853575798016
aF-0.05519479149179493
aF0.9747022572689105
aF0.012245012058498875
aa(lp120
g2
(g6
S"\xe8\xcd\x08\xd8\xf4'@\xc0"
p121
tp122
Rp123
aF0.09437409159666402
aF-0.4186789324428404
aF0.9021547706756561
aF0.043797855095683305
aa(lp124
g2
(g6
S'\x8d\xc8\xc0\x0c\xf0\xb11\xc0'
p125
tp126
Rp127
aF-0.13250527413299418
aF-0.33363645768998534
aF0.9321371861969591
aF-0.04742712869059792
aa(lp128
g2
(g6
S'\xff\xe9(S9VB\xc0'
p129
tp130
Rp131
aF-0.01239014801780401
aF-0.13429895960304347
aF0.9908619750163207
aF-0.0016793297452905437
aa(lp132
g2
(g6
S'\x85\x11\xdb\xe4\xb3\xf6:\xc0'
p133
tp134
Rp135
aF-0.03196222065479223
aF0.011087297492397305
aF0.999427517411757
aF0.0003545776384409138
aa(lp136
g2
(g6
S'\xfa\x8e\xbe\x048\xbc9\xc0'
p137
tp138
Rp139
aF-0.003470731021771201
aF-0.2808164690940972
aF0.9597546735783322
aF-0.0010155078766903515
aa(lp140
g2
(g6
S'\x87F\x10e\xca\x91B\xc0'
p141
tp142
Rp143
aF0.1593744248859246
aF-0.3155371343828507
aF0.933882436194558
aF0.05384890792817451
aa.