(lp0
(lp1
cnumpy.core.multiarray
scalar
p2
(cnumpy
dtype
p3
(S'f8'
p4
I0
I1
tp5
Rp6
(I3
S'<'
p7
NNNI-1
I-1
I0
tp8
bS'\xa8\x9f4\xd8\x8c\xcdC\xc0'
p9
tp10
Rp11
aF0.46868576467564566
aF0.22291199585127924
aF0.8458050414370297
aF-0.12352217604830792
aa(lp12
g2
(g6
S'\xd4\xed<\x1b\x1f\xf0I\xc0'
p13
tp14
Rp15
aF0.3452602495520213
aF0.0734335391023045
aF0.9352368456450575
aF-0.027109370373901667
aa(lp16
g2
(g6
S'pW\x90?>\x13E\xc0'
p17
tp18
Rp19
aF0.1662533816310106
aF-0.32746137415502086
aF0.9282721807420592
aF0.05864827357340374
aa(lp20
g2
(g6
S'\x05I)\xf2\xae,H\xc0'
p21
tp22
Rp23
aF0.38664746735508093
aF0.14095374966902952
aF0.9094198431221904
aF-0.059927667881812544
aa(lp24
g2
(g6
S'\x9bg\xd3r\xe4\x88H\xc0'
p25
tp26
Rp27
aF0.45771437566083056
aF-0.11510121852495739
aF0.8795804174626743
aF0.05989615199387783
aa(lp28
g2
(g6
S'\xfcu\xc27fWG\xc0'
p29
tp30
Rp31
aF0.2569777104209318
aF-0.2929696094979223
aF0.9172757131787567
aF0.08207636852257823
aa.