(lp0
(lp1
cnumpy.core.multiarray
scalar
p2
(cnumpy
dtype
p3
(S'f8'
p4
I0
I1
tp5
Rp6
(I3
S'<'
p7
NNNI-1
I-1
I0
tp8
bS'<\x1b\\\x17\xa5\xde4\xc0'
p9
tp10
Rp11
aF0.13011125244600263
aF0.196209064767004
aF0.9715361994500198
aF-0.026276948993400533
aa(lp12
g2
(g6
S'\xbd\xa7\x8e@u/D\xc0'
p13
tp14
Rp15
aF0.2150943113289214
aF0.0768791756245719
aF0.9734143211176443
aF-0.01698790841449379
aa(lp16
g2
(g6
S'\x0b9\xfbs\x93\xdcB\xc0'
p17
tp18
Rp19
aF0.45187382739422094
aF-0.033587494329116424
aF0.8912866840794358
aF0.017028538500808328
aa(lp20
g2
(g6
S'\x9a\x01N\x06VP@\xc0'
p21
tp22
Rp23
aF0.13427229402196633
aF0.25011171748093725
aF0.9582206241377597
aF-0.03504732962519121
aa(lp24
g2
(g6
S'\xdb\x82p\x93}pB\xc0'
p25
tp26
Rp27
aF0.11180856393800724
aF-0.04541389086580294
aF0.9926783261280644
aF0.005115113110570332
aa(lp28
g2
(g6
S'3t\xc6\xa9\xfa\xb9C\xc0'
p29
tp30
Rp31
aF0.2584281950339654
aF0.08207885156848901
aF0.9622848036648711
aF-0.022042839480097047
aa(lp32
g2
(g6
S'\x80mT\xb8\xf9\xf0>\xc0'
p33
tp34
Rp35
aF-0.003455639852040043
aF-0.05942804882850074
aF0.9982265891280124
aF-0.00020572677195500254
aa(lp36
g2
(g6
S'\xd5Q5x\x94@@\xc0'
p37
tp38
Rp39
aF0.4518027807867999
aF-0.044689394013461704
aF0.890709412414355
aF0.02266821502675025
aa(lp40
g2
(g6
S'\xb3\x07\xf8\r\x84l3\xc0'
p41
tp42
Rp43
aF0.0011163964214695207
aF0.21568859329490744
aF0.9764615320485809
aF-0.00024659852518889416
aa(lp44
g2
(g6
S'\x9e\x1a\xfb\xdc)\xad8\xc0'
p45
tp46
Rp47
aF-0.05028530417259553
aF-0.12999923305398844
aF0.9902161410179121
aF-0.006601640496009414
aa(lp48
g2
(g6
S'\xa2E\x9e,\xa7\xbd3\xc0'
p49
tp50
Rp51
aF-0.11779877115704417
aF0.23811642863808927
aF0.9636268498153612
aF0.029108593945010912
aa(lp52
g2
(g6
S'\x84\xf38+\x8dSA\xc0'
p53
tp54
Rp55
aF0.0787010763431729
aF0.019797666609893183
aF0.9967004310276567
aF-0.0015632557414294616
aa(lp56
g2
(g6
S'\x0e\x00w\x8c{l\xe2?'
p57
tp58
Rp59
aF-0.3720150723108813
aF-0.05353799880008292
aF0.9264320164607044
aF-0.02149854726639314
aa(lp60
g2
(g6
S'Fzz\xbd\x96RA\xc0'
p61
tp62
Rp63
aF0.36532752412649994
aF0.0412262966646827
aF0.9298246201752904
aF-0.016197786725171675
aa(lp64
g2
(g6
S':\xd6.\xa5\x87\xafB\xc0'
p65
tp66
Rp67
aF0.33386375832309734
aF-0.18330035321105342
aF0.9222433048522689
aF0.06635704971021934
aa(lp68
g2
(g6
S'\x0c\xefo-JH9\xc0'
p69
tp70
Rp71
aF0.10165015039603251
aF0.21275817914906803
aF0.9715480870803106
aF-0.022260247532907118
aa(lp72
g2
(g6
S'\xa4\xd9{\xe4\xa4\xd5C\xc0'
p73
tp74
Rp75
aF0.18057856881001988
aF0.06710033099630738
aF0.981191329196108
aF-0.012349152889401359
aa(lp76
g2
(g6
S'\x14\xea\xfa\xbf_\xaa;\xc0'
p77
tp78
Rp79
aF0.1929955875571684
aF0.10165394564824236
aF0.9757124999012484
aF-0.02010711451362221
aa(lp80
g2
(g6
S'\xfd\xb4\xa1\xd1\x82\xd45\xc0'
p81
tp82
Rp83
aF-0.06915587599377347
aF-0.1438125067749448
aF0.9871341955306212
aF-0.010075104205596135
aa.