(lp0
(lp1
F0.104474032955
aF0.060625
aF1.57079632679
aF0.0060625
aF-0.349065850399
aF0.3720703125
aF0.9138121455922756
aF0.5476212067710149
aF-0.349065850399
aF0.18481314182281494
aF1.330375854741952
aF0.2912165125048376
aF0.712174283174
aF1.2217304764
aF-0.522973775598
aF0.000625
aa(lp2
F-0.349065850399
aF0.07625
aF1.02431646608
aF0.9298256423470002
aF-0.349065850399
aF0.12925557883286298
aF1.3860210503579027
aF0.24012853185577043
aF-0.349065850399
aF0.052500000000000005
aF1.57079632679
aF0.00525
aF0.649589956837
aF1.2217304764
aF-0.48234877559799993
aF0.041249999999999995
aa(lp3
F-0.349065850399
aF0.6326904296875
aF1.029184911255991
aF0.0897216796875
aF-0.349065850399
aF0.7038173624562569
aF1.0145963074584454
aF0.09521484375
aF-0.349065850399
aF0.541015625
aF1.0232491849304028
aF0.541015625
aF0.268869373494
aF1.2217304764
aF-0.480039982711
aF0.51375
aa(lp4
F-0.349065850399
aF0.6724716689222241
aF0.48803634643554683
aF0.7496759792791758
aF-0.349065850399
aF0.5615234375
aF0.6315234375
aF0.8470665783910283
aF-0.349065850399
aF0.0947421864555551
aF1.5707488893542676
aF0.07107031250000001
aF0.214805894351
aF1.2217304764
aF-0.11808006661
aF0.04375
aa(lp5
F-0.34906585039899996
aF0.15744978987600966
aF1.5706974481740854
aF0.23701759394476518
aF-0.34906585039899996
aF0.047607421875
aF1.570758415724558
aF0.7618282830544498
aF-0.34906585039899996
aF0.0982818603515625
aF1.5707180623160464
aF0.6757183932512998
aF-0.11741037026700002
aF1.2217304764
aF0.523598775598
aF0.7742095916679999
aa(lp6
F-0.34906585039899996
aF0.3044164610285174
aF0.7907095041251845
aF0.21467971801757812
aF-0.34906585039899996
aF0.27926391839743125
aF0.9165265518168703
aF0.2734375
aF-0.34906585039899996
aF0.1386402450465991
aF1.0262232757826728
aF0.6199533543399776
aF0.761728259634
aF1.2217304764
aF-0.432973775598
aF0.090625
aa(lp7
F-0.349065850399
aF0.4103972108191085
aF0.4649765625000001
aF0.4072265625
aF-0.349065850399
aF0.330078125
aF0.3970704472602
aF0.923828125
aF-0.349065850399
aF0.027346939519047736
aF0.9501953125
aF0.9501953125
aF-0.282197551197
aF0.7649999999999999
aF0.523598775598
aF0.7649999999999999
aa(lp8
F-0.13983203310005446
aF1.247500000000001
aF0.12475000000000011
aF0.2177500000000002
aF-0.3490658503988659
aF1.3155543768707534
aF0.051000000000000045
aF0.46318731589583884
aF-0.3490658503988659
aF1.35008324982215
aF0.007000000000000001
aF0.06000000000000005
aF-0.6109475511965972
aF1.2217304763960306
aF0.5235987755982988
aF1.535706382922609
aa(lp9
F0.137045081272
aF0.8652256745435498
aF0.98570495478649
aF0.0
aF-0.34906585039900007
aF0.5528190063580807
aF1.419820819138326
aF0.3244841040273849
aF-0.34906585039900007
aF0.3096148961846609
aF1.570572359883832
aF0.6295054693661819
aF-0.42786838287500006
aF1.2217304764
aF0.523598775598
aF0.25875
aa(lp10
F-0.349065850399
aF0.6408203125
aF1.5706991189298924
aF0.1220703125
aF-0.349065850399
aF0.9163379465437644
aF1.2168197564145238
aF0.1904296875
aF-0.349065850399
aF0.9534771121849185
aF1.1667564322432138
aF0.09193560481071472
aF-0.697964621034
aF1.2217304764
aF0.495304331041
aF1.57079632679
aa(lp11
F-0.1455242032310572
aF0.6997528076171875
aF1.2747483182185237
aF0.1528778076171875
aF-0.0494715935534
aF0.8047946629942437
aF1.0614674481114608
aF0.45997656249999996
aF-0.103186455949
aF0.7245396821531478
aF1.2912186445221383
aF0.163421630859375
aF-0.641885859274
aF1.2217304764
aF0.523598775598
aF0.953033877187
aa(lp12
F-0.34906585039899996
aF0.4173185463470024
aF1.2135535097135488
aF0.06224211063224572
aF-0.34906585039899996
aF0.32213776940829186
aF1.2873241204867958
aF0.2138671875
aF-0.34906585039899996
aF0.121953125
aF1.5673084042937697
aF0.013953125
aF0.23471069525300003
aF0.809100882423
aF-0.35734877559800005
aF0.16625
aa(lp13
F-0.349065850399
aF0.5501985598612169
aF1.0537182537693308
aF0.3450846072183027
aF-0.349065850399
aF0.5489764083474673
aF0.9371121071214694
aF0.3852580415675042
aF-0.349065850399
aF0.383771252678
aF1.16377385136
aF0.562736075019
aF0.41379679326
aF1.2217304764
aF-0.4673487755979999
aF0.05625
aa(lp14
F-0.2623454988283459
aF0.4549841466941569
aF1.0709094513522601
aF0.03998579406738282
aF-0.34906585039899996
aF0.42452675583000143
aF1.1931490200281087
aF0.0
aF-0.34906585039899996
aF0.5154204665114663
aF0.8357915910720328
aF0.3690712787260557
aF0.71498406657
aF1.2217304764
aF-0.494848775598
aF0.02875
aa(lp15
F-0.07499343565504923
aF1.3966682444128693
aF0.02868750000000002
aF0.14470272273628965
aF-0.3490658503988659
aF1.1293750000000007
aF0.48593014549346913
aF0.6141066816652323
aF-0.3490658503988659
aF0.5358674947981656
aF1.5707963267948966
aF0.45754278191593134
aF-0.3390500201400276
aF1.2217304763960306
aF0.22327622440170158
aF0.8725270276318811
aa(lp16
F-0.349065850399
aF0.6709365961405885
aF1.4006498015312003
aF0.05078125
aF-0.349065850399
aF0.7512104870817797
aF1.3221633751637745
aF0.201171875
aF-0.349065850399
aF0.728071339033
aF1.40040726645
aF0.018499999999999996
aF-0.157853478724
aF1.2217304764
aF-0.367348775598
aF1.57079632679
aa(lp17
F-0.349065850399
aF0.78
aF0.536416872458
aF0.43900000000000006
aF-0.349065850399
aF0.1375
aF1.57079632679
aF0.01375
aF-0.349065850399
aF0.072265625
aF1.3402284194423049
aF0.3123947217417893
aF-0.273658263828
aF0.17125
aF-0.352348775598
aF0.17125
aa(lp18
F-0.349065850399
aF0.017578125
aF1.570782328862955
aF0.9092881427584325
aF-0.349065850399
aF0.1097259521484375
aF1.5707089490791053
aF0.9964653231055315
aF-0.349065850399
aF0.0684814453125
aF1.57074179318048
aF0.8493833674543607
aF-0.39876005119659763
aF1.2214955381562045
aF0.5144493438593299
aF1.3417481136713714
aa(lp19
F0.265748374503
aF0.5950295582517069
aF1.3226153655187454
aF0.0
aF-0.349065850399
aF0.074375
aF1.57079632679
aF0.0074375
aF-0.349065850399
aF0.07840228030877938
aF1.376809244610759
aF0.07421875
aF0.310456771711
aF1.2217304764
aF-0.469223775598
aF1.02257962743
aa(lp20
F-0.06328705963722442
aF0.9785684706079756
aF1.0533184602734291
aF0.3539903023003337
aF-0.349065850399
aF0.8292356853169731
aF1.1657609284014667
aF0.08465625000000002
aF-0.349065850399
aF0.5521750871704318
aF1.5707426680512206
aF0.0673828125
aF-0.815947551197
aF1.2217304764
aF0.504527294332
aF1.57079632679
aa(lp21
F0.148946451133
aF0.320949527904
aF1.57079632679
aF0.009625
aF-0.349065850399
aF0.18375
aF1.57079632679
aF0.018375
aF-0.349065850399
aF0.11125
aF1.57079632679
aF0.011125
aF0.3091980992207741
aF1.0977374017181663
aF-0.38315575004150587
aF0.13102900880738844
aa(lp22
F0.24639528904499997
aF1.225
aF0.265716370091
aF0.737902997594
aF-0.349065850399
aF0.6720496196559653
aF1.0291146123358719
aF0.1285400390625
aF-0.349065850399
aF0.22278632709085072
aF1.359751596960915
aF0.643855772138429
aF-0.42024442619659763
aF1.1371906646796646
aF0.28987623800933987
aF1.046953125
aa(lp23
F-0.3490658503988659
aF1.2250577428519702
aF0.048312500000000036
aF0.048312500000000036
aF-0.3490658503988659
aF1.1811926349682935
aF0.013812500000000005
aF0.6053055099552155
aF-0.3490658503988659
aF1.2830280695518677
aF0.059187500000000046
aF0.059187500000000046
aF0.35508713690487004
aF1.2217304763960306
aF-0.43547377559829875
aF0.088125
aa(lp24
F-0.161067186775
aF1.13375
aF0.24634309242700003
aF0.780865369699
aF-0.349065850399
aF0.7887500000000001
aF1.253956348
aF0.078875
aF-0.204642450154
aF0.6188456834069327
aF1.4900694013921392
aF0.078125
aF-0.2887214263402662
aF1.221807332736225
aF-0.2384425255982988
aF0.28515625
aa(lp25
F-0.3219879115124348
aF0.9098933501122117
aF1.3777858284724884
aF0.2257154350073891
aF-0.34906585039899996
aF0.8920545884869999
aF1.57079632679
aF0.010500000000000002
aF-0.20430262366702945
aF0.7908928108215332
aF1.5703206888271175
aF0.1015625
aF-1.0046975512
aF1.2217304764
aF0.523598775598
aF1.57079632679
aa(lp26
F-0.349065850399
aF1.092786896129295
aF0.7549948595485956
aF0.367465112073315
aF-0.349065850399
aF0.9413091094472767
aF0.7141394845169993
aF0.2602243090541698
aF-0.268440779352
aF0.734828391149
aF1.10480610153
aF0.013875
aF-0.722197551197
aF1.2217304764
aF0.523598775598
aF1.08865674503
aa(lp27
F-0.3490658503988659
aF0.9187500000000007
aF0.09187500000000007
aF0.4946627467546439
aF-0.3490658503988659
aF0.20125000000000004
aF1.5707963267948966
aF0.02012500000000001
aF-0.3490658503988659
aF0.09999999999999999
aF1.0000438049287195
aF1.426855388385377
aF-0.5034475511965972
aF0.5437500000000004
aF0.020151224401701487
aF1.5707963267948966
aa(lp28
F0.19479103767
aF0.29
aF1.57079632679
aF0.107304725332
aF-0.349065850399
aF0.2878515625
aF1.570758221308838
aF0.0478515625
aF-0.349065850399
aF0.257465576394449
aF1.2627585008280964
aF0.636171875
aF0.38409544743900004
aF1.2217304764
aF-0.498598775598
aF0.08499999999999999
aa(lp29
F-0.349065850399
aF0.85625
aF0.713475365708
aF0.085625
aF-0.349065850399
aF0.6857053196801208
aF1.0922561201990004
aF0.0946844482421875
aF-0.349065850399
aF0.6308733344396409
aF1.0904970180401385
aF0.20952068436496507
aF-0.344510216266
aF1.2217304764
aF0.523598775598
aF0.20625
aa(lp30
F-0.349065850399
aF0.8549710918656896
aF1.4994272749227513
aF0.23324203491210938
aF-0.349065850399
aF0.9308776273599226
aF1.5040758773408456
aF0.3345191008109749
aF-0.349065850399
aF0.7786346352391016
aF1.5706283516115982
aF0.5621875000000001
aF-1.0021975512
aF1.2217304764
aF0.258901224402
aF1.57079632679
aa(lp31
F-0.349065850399
aF0.197265625
aF1.5706392388919972
aF0.694765625
aF-0.349065850399
aF0.2687263488769531
aF1.5705823327992103
aF0.824141447898953
aF-0.349065850399
aF0.3642425537109375
aF1.570506270689535
aF0.3642425537109375
aF-0.525867503436
aF1.2217304764
aF0.523598775598
aF1.2502631070300003
aa(lp32
F-0.3490658503988659
aF0.9737500000000008
aF0.3560325527553236
aF1.201668880377551
aF-0.3490658503988659
aF0.7637500000000006
aF1.2622281798115846
aF0.07637500000000005
aF-0.3490658503988659
aF0.5569819720642152
aF1.5707963267948966
aF0.02025000000000001
aF-1.0046975511965976
aF0.8480019922276492
aF0.5235987755982988
aF0.18978705723826078
aa.