(lp0
(lp1
F-0.225318906081
aF0.7733441162109376
aF0.29252386439269173
aF0.526479177498012
aF-0.349065850399
aF0.7228033191660002
aF0.965639731482
aF0.0056875
aF-0.349065850399
aF0.9252530389360075
aF0.7415989196192772
aF0.103790283203125
aF0.494410508549
aF1.1273832712
aF-0.472973775598
aF0.050625
aa(lp2
F-0.349065850399
aF0.888411804978376
aF0.45104638658451623
aF0.0
aF-0.349065850399
aF0.9541464816905765
aF0.10691357123963341
aF0.5322930480208221
aF-0.349065850399
aF0.984640571046089
aF0.1701722869873047
aF0.1691722869873047
aF0.272580729705
aF1.2217304764
aF-0.499223775598
aF0.152918629212
aa(lp3
F-0.349065850399
aF0.4818359375
aF0.0965234375
aF0.6281403761341315
aF-0.349065850399
aF0.4849867444217584
aF0.1634443620567536
aF0.839173011793896
aF-0.349065850399
aF0.42123020353752905
aF0.7057278686336981
aF0.14453125
aF-0.155216818327
aF1.2217304764
aF0.494996600899
aF0.110625
aa(lp4
F-0.34906585039899996
aF1.0444573126174161
aF0.17266054510032713
aF0.2870999438233195
aF-0.34906585039899996
aF1.093065185546875
aF0.21007031250000002
aF0.49293802058999336
aF-0.34906585039899996
aF1.1370530694245646
aF0.2890625
aF0.32456250000000003
aF-0.680947551197
aF1.2217304764
aF0.523598775598
aF0.36625
aa(lp5
F-0.349065850399
aF1.11053259269
aF0.000375
aF0.000375
aF-0.349065850399
aF1.1350040671303647
aF0.10349349212646484
aF0.1402497946600052
aF-0.3490658503988659
aF1.267639678294918
aF0.0
aF0.3229302834624119
aF0.317697312396
aF1.2217304764
aF-0.519848775598
aF0.636517192451
aa(lp6
F-0.34906585039899996
aF0.22250000000000003
aF0.6791240234375
aF0.7888985284303223
aF-0.34906585039899996
aF0.48357345256008755
aF0.9498584916065032
aF0.17144775390625
aF-0.34906585039899996
aF0.680625
aF0.81803125
aF0.7836421849360642
aF0.45835360612599996
aF1.2217304764
aF-0.227973775598
aF0.295625
aa(lp7
F0.152764693745
aF0.104544295662
aF1.57079632679
aF0.010250000000000002
aF0.252446427731
aF0.5977734375
aF0.19952343749999998
aF0.7884911615047175
aF0.20638281823
aF0.44640625
aF0.4292811279296875
aF0.3912811279296875
aF0.377093375161
aF0.1325
aF-0.391098775598
aF1.156098397
aa(lp8
F-0.349065850399
aF1.15585600714
aF0.0045
aF0.0045
aF-0.349065850399
aF1.046875
aF0.294462855181
aF0.1046875
aF-0.349065850399
aF1.2733942790921515
aF0.036814635087625946
aF0.0
aF0.0509452918342
aF1.2217304764
aF0.151408930662
aF0.093125
aa(lp9
F-0.34906585039900007
aF0.5675
aF0.05675000000000001
aF0.761626528823
aF-0.34906585039900007
aF0.554921875
aF0.431536069801
aF0.3302339849996949
aF-0.34906585039900007
aF0.55
aF0.652683104143
aF0.055
aF-0.407298565336
aF1.2217304764
aF0.523598775598
aF0.11
aa(lp10
F-0.349065850399
aF1.036377341747284
aF0.3517112731933594
aF0.3517112731933594
aF-0.349065850399
aF1.1159826660156251
aF0.478515625
aF0.548453125
aF-0.0257023821648
aF1.57079632679
aF0.0204375
aF0.0204375
aF0.436834101666
aF1.2217304764
aF-0.419223775598
aF0.104375
aa(lp11
F-0.349065850399
aF0.38125
aF0.46300761709000005
aF0.540140493666
aF-0.349065850399
aF0.35191406249999996
aF0.963870727092691
aF0.2431640625
aF-0.349065850399
aF0.4308984375
aF1.045669276541857
aF0.2958984375
aF0.671123946151
aF1.2217304764
aF-0.507348775598
aF0.01625
aa(lp12
F-0.349065850399
aF1.098792557720916
aF0.05098456513282201
aF0.05078125
aF-0.349065850399
aF1.1579745853839063
aF0.2317679580892813
aF0.0
aF-0.349065850399
aF1.1369660780578852
aF0.3019498987197876
aF0.20617066582569707
aF0.307038155533
aF1.2217304764
aF-0.404223775598
aF0.119375
aa(lp13
F-0.349065850399
aF0.31062500000000004
aF0.6628275505387942
aF0.109375
aF-0.349065850399
aF0.7337500000000001
aF0.073375
aF0.073375
aF-0.283303150805
aF0.723622089173473
aF0.2772213596516151
aF0.09081840515136719
aF1.0471975512
aF0.759284087842
aF-0.492348775598
aF0.03125
aa(lp14
F0.2611782050274807
aF0.5812500000000004
aF0.058125000000000045
aF0.5123420368563338
aF-0.3490658503988659
aF0.07375000000000001
aF1.5707963267948966
aF0.007375000000000001
aF-0.3490658503988659
aF0.17375000000000002
aF1.5707963267948966
aF0.01737500000000001
aF0.7589196667513265
aF0.5662972609552014
aF-0.4573487755982988
aF0.06625
aa(lp15
F0.256570927831
aF0.18312499999999998
aF0.5338003440729999
aF0.7184938453373748
aF-0.349065850399
aF0.593125
aF0.611373046875
aF0.611373046875
aF-0.349065850399
aF0.7254826031886228
aF0.8271006708757191
aF0.504375
aF0.495635715904
aF1.2217304764
aF-0.49797377559799993
aF0.853354386398
aa(lp16
F-0.34906585039900007
aF1.0072376786777628
aF0.46763796321915496
aF0.1728515625
aF-0.34906585039900007
aF1.2156335449218751
aF0.421544821252
aF0.2523202481392032
aF-0.34906585039900007
aF1.57079632679
aF0.040125
aF0.040125
aF0.520411268983
aF1.2217304764
aF-0.412348775598
aF0.11125
aa(lp17
F-0.349065850399
aF0.8918021161030161
aF0.09375
aF0.09375
aF-0.333106152615
aF0.8075156714184759
aF0.5962417610131618
aF0.0
aF-0.349065850399
aF0.8801195587646402
aF0.5268577623829866
aF0.20348826019823085
aF0.464484422565
aF1.2217304764
aF-0.476723775598
aF0.628802776335
aa(lp18
F-0.0438702135263
aF0.7549999999999999
aF0.232555861441
aF0.73275
aF-0.349065850399
aF0.5129605102539063
aF1.0163783147221712
aF0.30796051025390625
aF-0.349065850399
aF1.029069427228558
aF0.170529296875
aF0.8411151612909241
aF-0.263447551197
aF0.78375
aF0.260151224402
aF0.78375
aa(lp19
F-0.349065850399
aF0.71053015393163
aF0.3439237070307981
aF0.0
aF-0.349065850399
aF0.918125
aF0.0918125
aF0.0918125
aF-0.349065850399
aF0.8611308759768322
aF0.3567910895409101
aF0.037441040666025494
aF0.633856236985
aF1.2217304764
aF-0.482973775598
aF0.040625
aa(lp20
F0.0582669542041
aF0.954053862052713
aF0.16380572421422956
aF0.5027842637779623
aF-0.349065850399
aF1.1874844029181324
aF0.2756910300543185
aF0.04681396484375
aF-0.349065850399
aF1.3243985954286328
aF0.17842664095278304
aF0.313098018635356
aF0.283097270897
aF1.2217304764
aF-0.43984877559799995
aF0.210514583001
aa(lp21
F-0.349065850399
aF0.8216973413890565
aF0.9576992389591001
aF0.0
aF-0.349065850399
aF0.8528898373246193
aF0.6503095638199854
aF0.33046937799453735
aF-0.349065850399
aF0.7628692626953124
aF0.9058037603471398
aF0.2903692626953125
aF-0.780947551197
aF1.2217304764
aF0.523598775598
aF1.03620386984
aa(lp22
F0.0246926114919
aF1.18872543521
aF0.009437499999999998
aF0.009437499999999998
aF-0.349065850399
aF1.280625
aF0.1280625
aF0.1280625
aF-0.349065850399
aF1.2067340087890623
aF0.5020722277251517
aF0.1259765625
aF-0.0895590468046
aF1.2217304764
aF-0.507973775598
aF1.264740556
aa(lp23
F0.142060237108
aF0.22999999999999998
aF1.57079632679
aF0.45178800052800006
aF-0.02247275455940445
aF1.00019310926357
aF0.5690047245049126
aF0.14819972361467615
aF0.265849711702
aF1.168166323056429
aF0.247075927734375
aF0.3661433650275878
aF-0.7921975511969999
aF1.2217304764000003
aF0.523598775598
aF1.57079632679
aa(lp24
F0.217080986561
aF0.611777679363
aF0.02625
aF0.02625
aF-0.349065850399
aF0.6654723098138322
aF0.3109915143214763
aF0.14071793059191284
aF-0.349065850399
aF0.6659602201852157
aF0.46326962040537567
aF0.0
aF0.125713894616
aF1.2217304764
aF0.523598775598
aF0.11625
aa(lp25
F0.138383071659
aF0.16111328125
aF0.3942142853392139
aF0.6058490414294591
aF-0.349065850399
aF0.47121348252690376
aF0.6826902196478599
aF0.035003662109375
aF-0.349065850399
aF0.7072288173383281
aF0.1760054016113281
aF0.8129626337698447
aF1.00418982341
aF0.635024335417
aF-0.462973775598
aF0.060625
aa(lp26
F-0.349065850399
aF0.8310904559977037
aF0.86349167948367
aF0.0966796875
aF-0.349065850399
aF1.2975
aF0.34540431776
aF0.12975
aF0.143886575368
aF1.57079632679
aF0.06025
aF0.06025
aF0.426026724621
aF1.2217304764
aF-0.47109877559800006
aF0.171373149642
aa(lp27
F-0.3490658503988659
aF1.061307611465454
aF0.0
aF0.4269694654980647
aF-0.349065850399
aF0.9165933334594012
aF0.9250293756775734
aF0.0021383712389748677
aF-0.349065850399
aF0.93194200096
aF0.973339067558
aF0.005125
aF-0.370935447968
aF1.2217304764
aF-0.352973775598
aF1.23868208706
aa.