(lp0
(lp1
F-0.349065850399
aF0.234375
aF1.0557686393939747
aF1.3614464238768353
aF-0.349065850399
aF0.2421875
aF1.1760213164066506
aF1.3614575677461005
aF-0.349065850399
aF0.1171875
aF0.999985162663499
aF1.5704613485069068
aF1.0471975512
aF0.11625000000000002
aF-0.407348775598
aF0.11625000000000002
aa(lp2
F-0.349065850399
aF0.8190194382228886
aF0.41055599312929636
aF0.7964116607754699
aF-0.349065850399
aF0.8288353971578921
aF0.6331354046219884
aF0.4802724220458541
aF-0.349065850399
aF0.8362975422803212
aF0.4641660224702646
aF0.7080768977426573
aF0.918199780496
aF1.2217304764
aF-0.4185987755980001
aF0.10499999999999998
aa(lp3
F0.119957438701
aF0.15026441603973018
aF1.3509362361948118
aF0.1425596194681611
aF-0.349065850399
aF0.2167731607275003
aF1.239071074948164
aF0.299619925490042
aF-0.349065850399
aF0.14763916015624998
aF1.2760947422926432
aF0.14313916015625
aF1.0471975512
aF0.7727677241139999
aF-0.484848775598
aF0.03875
aa(lp4
F-0.34906585039899996
aF0.1015625
aF1.284641995216413
aF1.5707154498503906
aF-0.34906585039899996
aF0.40234375
aF1.2328376459783323
aF1.5704759296860125
aF-0.34906585039899996
aF0.265625
aF1.252804433175038
aF1.5705848024900022
aF0.4053024488029999
aF1.2217304764
aF0.523598775598
aF1.4525
aa(lp5
F-0.34906585039899996
aF0.197265625
aF1.022862908883884
aF1.5706392388919972
aF-0.34906585039899996
aF0.5302734375
aF0.6926800334552974
aF1.5703740558479935
aF-0.34906585039899996
aF0.265625
aF0.9956431540103861
aF1.5702489979336653
aF0.7203024488030001
aF1.2217304764
aF0.523598775598
aF1.57079632679
aa(lp6
F-0.349065850399
aF0.7671211196531054
aF1.061637429245309
aF0.36593259527616095
aF-0.349065850399
aF0.8688395910099218
aF0.836105474366251
aF0.4705451997664155
aF-0.349065850399
aF0.8410876225916615
aF0.9448716965558892
aF0.0592797743861595
aF0.381069341165
aF1.2217304764
aF-0.246098775598
aF0.2775
aa(lp7
F-0.174220928591
aF0.19882965087890625
aF1.0524610361927293
aF0.6474742652789063
aF-0.349065850399
aF0.6097877502441407
aF0.5363935481817017
aF0.4510442809112176
aF-0.349065850399
aF0.90625
aF0.090625
aF0.090625
aF1.0471975512
aF1.2217304764
aF-0.288598775598
aF0.235
aa(lp8
F-0.3490658503988659
aF0.042499999999999996
aF1.5707963267948966
aF0.00425
aF-0.3490658503988659
aF0.6950000000000005
aF0.5913782559871833
aF0.42072057396922885
aF-0.3490658503988659
aF1.056644354577497
aF0.2558987438823742
aF0.01925000000000001
aF1.0471975511965976
aF1.2217304763960306
aF-0.39609877559829876
aF0.12749999999999997
aa(lp9
F0.18040007658
aF0.11328125
aF1.3612277583936954
aF1.570706117900162
aF-0.33399957395
aF0.0234375
aF1.5707776628856411
aF1.5707776628856411
aF-0.349065850399
aF0.07421875
aF1.5707372244155877
aF1.1636723943415235
aF0.407802448803
aF1.2217304764
aF0.523598775598
aF1.455
aa(lp10
F0.226038715442
aF0.13671875
aF1.2802399472752957
aF1.5706874539909068
aF-0.349065850399
aF0.0859375
aF1.5707278924564845
aF1.0697194472525782
aF-0.349065850399
aF0.068359375
aF1.233710440066808
aF1.5707418903929018
aF0.480302448803
aF1.2217304764
aF0.523598775598
aF1.5275000000000003
aa.