(lp0
(lp1
F-0.202434148682
aF0.203125
aF1.5706345729146831
aF0.203125
aF-0.349065850399
aF0.1572265625
aF1.5706711230703083
aF0.1572265625
aF-0.349065850399
aF0.0765380859375
aF1.5707353774662345
aF0.0765380859375
aF0.0530465042217
aF1.2217304764
aF-0.494848775598
aF0.028749999999999998
aa(lp2
F-0.34906585039899996
aF0.7255708892094643
aF1.1715834842147301
aF0.750529533942027
aF-0.34906585039899996
aF0.7232744101120574
aF1.228623761690657
aF0.486328125
aF-0.34906585039899996
aF0.7202317745214657
aF1.2155275233292366
aF0.2709652362787245
aF-1.0071975512
aF1.2217304764
aF0.523598775598
aF1.57079632679
aa(lp3
F0.289136568569
aF1.31501038304
aF0.008125
aF0.682925829871
aF-0.349065850399
aF1.0321075439453125
aF0.43896484375
aF0.5000898437500001
aF-0.349065850399
aF1.0975
aF0.225333781785
aF0.45575
aF-0.904110036498
aF1.2217304764
aF0.523598775598
aF0.0900225856187
aa(lp4
F-0.3490658503988659
aF0.9725000000000007
aF0.09725000000000007
aF1.5707963267948966
aF-0.3490658503988659
aF1.097392658670701
aF0.01837500000000001
aF1.1859155490529054
aF-0.3490658503988659
aF1.2225000000000008
aF0.1222500000000001
aF0.1222500000000001
aF-0.07150114693219264
aF1.2217304763960306
aF-0.5160987755982988
aF0.0075
aa(lp5
F0.124947648948
aF1.140648536780488
aF0.7311869102248226
aF0.19922308217530493
aF0.243937759429
aF1.111671906003259
aF0.8104684918206795
aF0.3213515625
aF-0.34714029607200003
aF1.0842155170365164
aF0.8729891210299394
aF0.09765625
aF-0.9596975511970001
aF1.2217304764
aF0.523598775598
aF0.375
aa(lp6
F-0.349065850399
aF0.0185546875
aF0.7208787798477074
aF1.5707815511952636
aF-0.349065850399
aF0.038055419921875
aF0.7625384489496374
aF1.5707660222443216
aF-0.349065850399
aF0.029296875
aF0.6194964694213898
aF1.5707729969083273
aF0.402661090741
aF1.2217304764
aF-0.462973775598
aF1.35828239952
aa(lp7
F0.029682285555152774
aF1.1966011548113453
aF0.8787659022748349
aF0.196239013671875
aF-0.349065850399
aF1.4017318730191295
aF0.5160208094183862
aF0.43502160060664363
aF-0.129658616308
aF1.324770737573736
aF0.5635717314244422
aF0.49835914776395973
aF-0.838447551197
aF1.2217304764
aF-0.314848775598
aF1.57079632679
aa(lp8
F-0.12342914113602568
aF0.6790630047265178
aF1.1940852681782728
aF0.5466342377544793
aF-0.202638543996
aF0.7346874999999999
aF1.3949693517892952
aF0.1298828125
aF-0.349065850399
aF0.7632042414096982
aF1.294606350632892
aF0.0673828125
aF-1.0371975512
aF1.2217304764
aF0.444211932594
aF1.57079632679
aa(lp9
F-0.349065850399
aF1.0810204950150484
aF0.1435546875
aF1.02829833984375
aF-0.349065850399
aF0.9751789872369591
aF0.603591838543775
aF0.5819127552957974
aF-0.349065850399
aF0.7273486328125
aF1.0048517312003418
aF0.5218442960490446
aF-0.669697551197
aF1.2217304764
aF0.523598775598
aF0.83740085647
aa(lp10
F0.013346564051786702
aF0.7448761978761542
aF1.0355457227881755
aF0.4091796875
aF-0.3490658503988659
aF1.0448944047521431
aF0.6378497267194495
aF0.24821093750000003
aF-0.34906585039900007
aF1.2076464843749999
aF0.19921875
aF0.19921875
aF-0.529697551197
aF1.2217304764
aF0.523598775598
aF0.5175
aa(lp11
F-0.34906585039900007
aF0.6492516021877542
aF1.333393831999552
aF0.3505859375
aF-0.34906585039900007
aF0.6840573839812364
aF1.4305330302574155
aF0.2421875
aF-0.34906585039900007
aF0.559776788357754
aF1.5706734560589652
aF0.154296875
aF-0.8621975511969999
aF1.2217304764
aF0.523598775598
aF0.65325231791
aa(lp12
F0.20688032994
aF0.8899814711803149
aF0.9299845380623022
aF0.30339453125
aF-0.34906585039900007
aF0.9860028837126206
aF0.8138630743192613
aF0.3583984375
aF-0.34906585039900007
aF1.0089363537294807
aF0.5956497878104043
aF0.553822658353937
aF-0.910947551197
aF1.2217304763999999
aF0.523598775598
aF0.13625
aa(lp13
F-0.349065850399
aF0.019439697265625
aF1.0179018553939516
aF1.5707808464430792
aF-0.349065850399
aF0.06927490234375
aF1.0973784286112656
aF1.5707411613339466
aF-0.349065850399
aF0.041301727294921875
aF0.9915340389295422
aF1.570763437122776
aF-0.4573217756
aF1.2217304764
aF0.523598775598
aF0.352009536805
aa(lp14
F0.349065850399
aF0.9114748365102718
aF1.0985862872079775
aF0.00075
aF0.00751505377304
aF0.8807057651158973
aF0.9741009853585177
aF0.45055134797582563
aF-0.349065850399
aF0.56125
aF1.57079632679
aF0.056124999999999994
aF-0.972197551197
aF1.2217304764000003
aF0.523598775598
aF1.1471884254
aa(lp15
F-0.34906585039899996
aF0.057891845703125
aF1.570750225966957
aF0.9545326134726089
aF-0.34906585039899996
aF0.1402740478515625
aF1.5706846228077542
aF1.033280963274733
aF-0.34906585039899996
aF0.1570892333984375
aF1.2799975279642324
aF1.2342015744614039
aF-0.6984475511969999
aF1.2217304764
aF0.523598775598
aF1.57079632679
aa(lp16
F-0.34906585039900007
aF0.9639450684564514
aF0.645796933978532
aF0.630214874900565
aF-0.34906585039900007
aF0.898427613914238
aF0.9353109392770198
aF0.4663735946410954
aF-0.34906585039900007
aF0.8916894083121782
aF0.8038591393692693
aF0.49991380958687504
aF-0.845947551197
aF1.2217304764
aF0.40197783474399995
aF1.57079632679
aa(lp17
F0.265208705924
aF1.1474983208499192
aF0.7553676946589749
aF0.06854541015625
aF-0.349065850399
aF1.1296454306072783
aF0.8239154663067493
aF0.18133398437499998
aF-0.349065850399
aF1.0485029356683166
aF0.9270955250536266
aF0.1092681884765625
aF-0.7953904624280002
aF1.2217304764
aF-0.3998487755979999
aF1.25689654753
aa(lp18
F-0.349065850399
aF1.5425
aF1.57
aF1.57
aF-0.349065850399
aF0.7786496056143244
aF1.2891893952981737
aF0.040740966796875
aF-0.349065850399
aF0.39648807037
aF1.57079632679
aF0.48387099752
aF-0.7466369723299999
aF1.2217304764
aF-0.45984877559799997
aF0.648027215317
aa(lp19
F-0.349065850399
aF0.93904296875
aF1.5707729969035742
aF0.029296875
aF-0.349065850399
aF1.3714746494307815
aF0.8250138931630941
aF0.14608983438452028
aF0.139813767258
aF1.57079632679
aF0.15600000000000003
aF0.412546364555
aF-0.84397163751
aF1.2217304764
aF-0.436098775598
aF1.2677941987399999
aa(lp20
F-0.3490658503988659
aF0.8459388221212738
aF0.5681343890548236
aF0.5667475044980854
aF-0.349065850399
aF0.201171875
aF1.5667392189363052
aF0.22667187500000002
aF-0.349065850399
aF0.07012164571735013
aF1.5707418903929018
aF0.07785937500000001
aF0.151218245225
aF1.2217304764
aF-0.246723775598
aF0.276875
aa.