(lp0
(lp1
F-0.349065850399
aF0.24609459754613544
aF1.5706003557440236
aF1.2925652065034083
aF-0.349065850399
aF0.390625
aF1.48390792007875
aF1.4445778853514062
aF-0.349065850399
aF0.19319915771484375
aF1.5685182918213771
aF1.22570745930196
aF-0.538447551197
aF0.50875
aF-0.014848775598299998
aF0.966205116527
aa(lp2
F-0.349065850399
aF0.611401653968
aF1.57079632679
aF0.0055
aF-0.349065850399
aF0.9311359953432423
aF0.983141408455235
aF0.33093060720505996
aF-0.33721430408143543
aF0.9236717620756056
aF0.7732551494163891
aF0.7442909313231885
aF0.174554296404
aF1.2217304764
aF-0.454848775598
aF0.320337861408
aa(lp3
F-0.34906585039899996
aF1.5074999999999998
aF0.15075
aF0.530730708136
aF-0.34906585039899996
aF1.46821272618
aF0.5349820556640625
aF0.5222320556640625
aF-0.34906585039899996
aF1.5525
aF0.16225
aF0.736275414925
aF-0.0546975511966
aF1.2217304764
aF0.468901224402
aF1.1675
aa(lp4
F-0.349065850399
aF0.7411398108381566
aF0.8613969810082764
aF1.042422682263556
aF-0.349065850399
aF0.8794603707577535
aF1.2020321026540604
aF0.49980353260871113
aF-0.349065850399
aF0.7513055332688363
aF1.3939107680266103
aF0.27771513512483814
aF-0.4602600885659455
aF1.2142921579332588
aF0.5236371740270978
aF0.461286626433
aa(lp5
F-0.07506924764275252
aF0.8699512468135504
aF0.7412791139557937
aF0.024675591325897805
aF-0.04428934927068984
aF1.0094728104287465
aF0.4059758371222948
aF0.14274905224487977
aF-0.349065850399
aF1.05875
aF0.105875
aF0.105875
aF0.434958115461
aF1.2217304764
aF-0.311098775598
aF0.505987939999
aa(lp6
F-0.349065850399
aF0.465
aF1.57079632679
aF0.0465
aF-0.349065850399
aF0.555
aF1.57079632679
aF0.0555
aF-0.3490658503988659
aF0.7212213556658199
aF0.8911452922177305
aF0.5938619136955743
aF0.195160483327
aF1.2217304764
aF-0.329848775598
aF0.766128996972
aa(lp7
F0.349065850399
aF0.9804125421698597
aF1.1963304743323966
aF0.001
aF-0.329323541472
aF0.8863726827036462
aF1.2709876957714075
aF0.6962458193662433
aF-0.349065850399
aF0.534416650793557
aF1.5707963267948966
aF0.4608829875971652
aF-0.00990026660269
aF1.2217304764
aF-0.397348775598
aF1.57079632679
aa(lp8
F-0.349065850399
aF0.856362013214
aF1.57079632679
aF0.000875
aF-0.349065850399
aF0.9580856197778713
aF1.3359244907410497
aF0.3314624737652121
aF-0.349065850399
aF0.9053518464421506
aF1.2752475298635064
aF0.40321875
aF-0.25004441410924594
aF1.221795751643867
aF-0.14771395796085496
aF0.2421875
aa(lp9
F-0.3490658503988659
aF0.7847896025145673
aF1.060125652590578
aF0.22292357048572353
aF-0.349065850399
aF0.5325
aF1.57079632679
aF0.05324999999999999
aF-0.349065850399
aF0.360381452749
aF1.57079632679
aF0.100533222533
aF0.027378320362109382
aF1.0520409699844053
aF-0.09438063335919616
aF0.8810236415106288
aa(lp10
F-0.349065850399
aF0.889375
aF1.57079632679
aF0.0889375
aF-0.349065850399
aF1.2683402212856656
aF0.5214677696726562
aF1.0061633785784045
aF-0.349065850399
aF1.57079632679
aF0.1303958981
aF0.10593749999999999
aF-0.136413354304
aF1.2217304764
aF-0.370903489206
aF0.529004938743
aa(lp11
F0.289689907992
aF0.948012640097269
aF0.7570535531940084
aF0.7473951488117665
aF-0.349065850399
aF1.0222320767138544
aF0.7249205411502468
aF0.7384318225075219
aF-0.349065850399
aF1.0486674882548852
aF0.3791413530787009
aF1.0059074722218282
aF-0.130457743434
aF1.2217304764
aF-0.318598775598
aF0.914229154348
aa(lp12
F-0.349065850399
aF0.8363411607814251
aF1.5572032666225832
aF0.0
aF-0.349065850399
aF0.792586189666
aF1.57079632679
aF0.0365
aF-0.349065850399
aF0.7303696756295215
aF1.57
aF0.0
aF-0.317197551197
aF1.2217304764
aF0.206401224402
aF0.73
aa(lp13
F-0.34906585039899996
aF0.8023973175366994
aF1.2681877152952405
aF0.49681134886147493
aF-0.34906585039899996
aF0.9180154557938168
aF1.3543486197809935
aF0.09354786799377596
aF-0.34906585039899996
aF0.9855025407611253
aF1.1389071884551103
aF0.171875
aF-0.4185739603191033
aF1.221789434684399
aF0.5236865434359376
aF0.43124999999999997
aa(lp14
F0.052780670066
aF1.5543749999999998
aF1.5699999999999998
aF1.5699999999999998
aF-0.18100303753361155
aF0.6995919583193151
aF1.2863498908885196
aF0.224609375
aF-0.349065850399
aF0.3897265625
aF1.5706586804600877
aF0.250528164351163
aF0.435445093058
aF1.2217304764
aF-0.426723775598
aF0.09687500000000002
aa(lp15
F-0.349065850399
aF0.4075
aF0.9755652105179999
aF1.57079632679
aF-0.349065850399
aF0.17626953125
aF1.3959646934636796
aF1.1782507157752988
aF-0.349065850399
aF0.1094970703125
aF1.2235620321839489
aF1.5152263698125377
aF0.174066766882
aF1.2217304764
aF0.523598775598
aF1.57079632679
aa(lp16
F-0.349065850399
aF0.8528003180224071
aF0.2883935725055209
aF1.0777661686685578
aF-0.349065850399
aF0.7811714281239501
aF0.7074699457657373
aF1.026125
aF-0.349065850399
aF0.6168286017887767
aF1.1882334665789942
aF0.0382080078125
aF0.517749752085
aF1.2217304764
aF-0.437348775598
aF0.08625
aa(lp17
F-0.34906585039899996
aF1.2475
aF0.12475
aF1.26212271071
aF-0.34906585039899996
aF0.5075
aF1.57079632679
aF0.05075
aF-0.34906585039899996
aF0.41999999999999993
aF1.0637347456
aF1.27634736436
aF0.048467457531206945
aF1.1538228140857423
aF0.001990593678652952
aF0.9051049804687499
aa(lp18
F-0.3490658503988659
aF1.4069786033543612
aF0.4852500000000004
aF1.5707963267948966
aF-0.336627940155922
aF1.4950740192479328
aF0.4002500000000003
aF1.4552271283819342
aF-0.3490658503988659
aF1.4325000000000008
aF0.41225000000000034
aF1.5507149208858353
aF0.0765575738310117
aF1.2217304763960306
aF-0.3685987755982987
aF1.5707963267948966
aa(lp19
F-0.060135665442
aF0.9739043800707265
aF0.9873747446014536
aF0.3108125
aF-0.349065850399
aF1.4562500000000003
aF0.202353063812
aF0.145625
aF-0.349065850399
aF1.473459029147253
aF0.11110161235728011
aF0.01610729243482112
aF0.157668575423
aF1.2217304764
aF-0.452348775598
aF0.07125
aa(lp20
F-0.349065850399
aF0.49749999999999994
aF1.57079632679
aF0.128575512358
aF-0.349065850399
aF0.4392349921457779
aF1.57
aF0.0
aF-0.349065850399
aF0.2725
aF1.5388153031056975
aF0.027250000000000003
aF0.504812241408
aF0.8887885200379999
aF-0.521098775598
aF0.0025
aa(lp21
F-0.349065850399
aF1.206185564994812
aF0.8341403620275285
aF0.5917930603027344
aF-0.349065850399
aF1.446658222626758
aF0.30903125000000004
aF0.8013618486601262
aF0.182607287852
aF1.57079632679
aF0.076875
aF0.076875
aF-0.49041418787
aF1.2217304764
aF0.523598775598
aF0.18424069880299998
aa(lp22
F-0.349065850399
aF1.5425
aF1.57
aF1.57
aF-0.349065850399
aF0.7472251450958509
aF1.5086307688249008
aF0.09495433143473342
aF-0.349065850399
aF0.5221484375
aF1.570685120998037
aF0.1396484375
aF0.32253728132900006
aF1.2217304764
aF-0.423598775598
aF0.277366590119
aa(lp23
F-0.3490658503988659
aF1.1637500000000007
aF0.11637500000000009
aF1.5707963267948966
aF-0.3490658503988659
aF1.2996746187526411
aF0.003875
aF1.3216504274037955
aF-0.3490658503988659
aF1.3733845873214063
aF0.02087500000000001
aF0.7766277661356744
aF0.062414598761336496
aF1.2217304763960306
aF-0.37359877559829874
aF0.7719073648123153
aa(lp24
F-0.3490658503988659
aF0.9637500000000008
aF0.09637500000000007
aF1.5707963267948966
aF-0.3490658503988659
aF0.5425000000000003
aF1.5707963267948966
aF0.05425000000000004
aF-0.3490658503988659
aF0.3925000000000002
aF1.5707963267948966
aF0.130803326036375
aF-0.0663719148770767
aF1.2217304763960306
aF0.5235987755982988
aF0.06875
aa(lp25
F-0.3490658503988659
aF1.335625000000001
aF0.1335625000000001
aF1.5341831826013306
aF-0.3490658503988659
aF1.1281250000000007
aF1.0446439807035457
aF0.1128125000000001
aF-0.3490658503988659
aF0.8690473179392001
aF1.5707963267948966
aF0.011750000000000003
aF-0.49657255119659716
aF1.2217304763960306
aF0.3808065644241119
aF1.5707963267948966
aa(lp26
F-0.34906585039900007
aF0.9354434307351924
aF1.0638155798692412
aF0.6498200098324627
aF-0.34906585039900007
aF1.079600678056671
aF1.1786575291406547
aF0.0
aF-0.34906585039900007
aF1.079575122513141
aF1.0319951257334734
aF0.13374645101922744
aF-0.07330241665293037
aF1.2217562994354185
aF-0.4277888390748613
aF0.15303820539479918
aa.