(lp0
(lp1
F0.275379063233
aF0.080625
aF1.34236599135
aF0.0080625
aF-0.208526065571
aF0.135625
aF1.57079632679
aF0.0135625
aF-0.349065850399
aF0.6567770391175198
aF0.5300145724981391
aF0.1614797015629108
aF0.17448104236410528
aF1.2219959948380135
aF0.393650156507651
aF0.0
aa(lp2
F0.0631828421981
aF0.8600971716062493
aF0.5405415237292797
aF0.2199370481172478
aF-0.34906585039899996
aF0.7998132228851318
aF0.26146881103515623
aF0.20084381103515625
aF-0.34906585039899996
aF0.67625
aF0.067625
aF0.498625
aF0.300697435047
aF1.2217304764
aF-0.476098775598
aF0.841551916743
aa(lp3
F0.123947087146
aF1.0370043945312502
aF0.3933799368235789
aF0.7554576153873844
aF-0.349065850399
aF0.80625
aF1.14745696031
aF0.080625
aF-0.349065850399
aF0.488291129455
aF1.57079632679
aF0.01725
aF-0.568646266004
aF0.872566031009
aF-0.486098775598
aF0.0375
aa(lp4
F-0.07715276750426762
aF0.14125
aF1.51571630415991
aF0.014125000000000006
aF-0.3490658503988659
aF1.0303684773341537
aF0.08900000000000007
aF0.08900000000000007
aF-0.3490658503988659
aF1.0662500000000006
aF0.10662500000000008
aF0.10662500000000008
aF0.1279794891465011
aF1.2217304763960306
aF-0.35609877559829867
aF0.9797336104134725
aa(lp5
F-0.349065850399
aF1.124889174675153
aF0.3093967455452593
aF0.0
aF-0.349065850399
aF0.753942562174412
aF0.8436763953072699
aF0.0548299560546875
aF-0.349065850399
aF0.71125
aF0.071125
aF1.57079632679
aF0.13704055127
aF1.2217304764
aF-0.492348775598
aF0.733378912502
aa(lp6
F-0.349065850399
aF0.235
aF0.5053124999999999
aF1.570790105486953
aF-0.349065850399
aF0.04
aF1.57079632679
aF0.004
aF-0.349065850399
aF0.148895263671875
aF1.1424673192144736
aF0.49768719896747005
aF-0.182197551197
aF1.2217304764
aF0.523598775598
aF1.35771423224
aa.