(lp0
(lp1
F-0.34906585039899996
aF0.9181688308715821
aF0.602543830871582
aF0.602543830871582
aF-0.34906585039899996
aF1.1317370581617188
aF0.21481250000000002
aF0.890625
aF-0.34906585039899996
aF0.739926704972
aF0.724609375
aF1.0750196868477462
aF-0.331320005627
aF1.2217304764
aF-0.191079900556
aF0.021875
aa(lp2
F-0.349065850399
aF0.20582419528815143
aF1.2185224175962182
aF0.259984375
aF-0.349065850399
aF0.1
aF1.57079632679
aF0.01
aF-0.349065850399
aF0.21875
aF0.9769664307449581
aF0.629
aF0.596764159995
aF1.2217304764
aF-0.503598775598
aF0.184127450428
aa(lp3
F0.293164562615
aF0.825928054898
aF0.807383663883
aF0.0059375
aF-0.349065850399
aF0.5423046874999999
aF1.309361612676748
aF0.0654296875
aF-0.349065850399
aF0.5231250000000001
aF1.1663195630854468
aF0.15625
aF-0.22161466409
aF1.20751367675
aF-0.075338307691
aF1.3428031407
aa(lp4
F-0.3490658503988659
aF0.6737500000000005
aF1.55523656509911
aF1.5707963267948966
aF-0.3490658503988659
aF0.44375000000000026
aF0.4983750000000004
aF1.5707963267948966
aF-0.3490658503988659
aF0.4762500000000003
aF0.1658231107653211
aF1.5707963267948966
aF0.48556388013156404
aF1.2217304763960306
aF-0.4398487755982987
aF0.08375
aa(lp5
F0.0367963894672
aF0.6643292694492285
aF0.6683048146695932
aF0.064703125
aF-0.349065850399
aF0.7389962347223036
aF0.5958550782715237
aF0.164234375
aF-0.349065850399
aF0.7675247983987754
aF0.43226746583300635
aF0.0780487060546875
aF0.446159831292
aF1.2217304763999999
aF-0.517348775598
aF0.00625
aa(lp6
F-0.349065850399
aF0.31
aF0.031
aF0.357
aF-0.349065850399
aF0.261234083775
aF0.058
aF0.4597925819340001
aF-0.349065850399
aF0.073828125
aF0.443359375
aF0.443359375
aF1.0471975512
aF1.21778614683
aF-0.443598775598
aF0.08
aa(lp7
F-0.238369496183
aF0.19769175400652897
aF1.0932034244871218
aF0.1866533765879126
aF-0.223110598623
aF0.12890625
aF1.2859909515766896
aF0.12890625
aF-0.349065850399
aF0.03125
aF1.2892358725268274
aF0.03125
aF0.885564714987
aF1.2217304764
aF-0.508598775598
aF0.015
aa(lp8
F0.24886469085900004
aF1.0356191812977933
aF0.091796875
aF0.463656370052
aF-0.349065850399
aF0.984335862624
aF0.0595625
aF0.6558124999999999
aF-0.349065850399
aF0.7867580482367423
aF0.188357177734375
aF0.767669677734375
aF0.37829164386
aF1.2217304764
aF-0.372963442408
aF0.08687499999999998
aa(lp9
F0.000542695690091
aF0.224375
aF1.57079632679
aF0.0224375
aF-0.34906585039899996
aF0.52802734375
aF1.1302094498194108
aF0.11865234375
aF-0.34906585039899996
aF0.5348685521352724
aF0.9763161228154607
aF0.2508710552102969
aF0.302911998573
aF1.2217304764000003
aF-0.456723775598
aF0.541182899346
aa(lp10
F-0.34906585039900007
aF0.5340455243010158
aF0.7348033997887011
aF0.14744866943359375
aF-0.34906585039900007
aF0.3638784820503016
aF0.8849525655107875
aF0.1435546875
aF-0.34906585039900007
aF0.21125
aF0.577203125
aF0.577203125
aF0.537355743897
aF0.859307679861
aF-0.498598775598
aF0.16125
aa(lp11
F-0.349065850399
aF0.3825
aF0.42125
aF1.57079632679
aF-0.349065850399
aF0.1525
aF1.57079632679
aF0.01525
aF-0.349065850399
aF0.7195759956441443
aF0.361328125
aF0.361328125
aF0.52994653555
aF1.2217304764
aF-0.494848775598
aF0.028750000000000005
aa(lp12
F-0.349065850399
aF0.251953125
aF0.84912662369325
aF1.1753781404337844
aF-0.349065850399
aF0.0712890625
aF1.1444698924782115
aF0.6027261182296524
aF-0.349065850399
aF0.0550537109375
aF0.4418724216745
aF1.5707524860450914
aF0.317079399036
aF1.2217304764
aF-0.418598775598
aF1.57079632679
aa(lp13
F0.0968064441823
aF0.4675
aF1.57079632679
aF0.133119931963
aF-0.34906585039900007
aF0.18306522981295786
aF1.4339270728603424
aF0.21196875
aF-0.34906585039900007
aF0.01153564453125
aF1.3095374326084603
aF0.01153564453125
aF0.22094558060999997
aF1.2217304764
aF-0.416098775598
aF1.13614660938
aa(lp14
F-0.349065850399
aF1.300321752192727
aF0.255859375
aF0.321609375
aF-0.349065850399
aF1.2856076911711773
aF0.34519287109375
aF0.29144287109375
aF-0.349065850399
aF1.1821406008699127
aF0.32210020029746333
aF0.140625
aF-0.769697551197
aF1.2217304763999999
aF0.523598775598
aF0.341588998027
aa(lp15
F0.247800143761
aF0.9354248046875
aF0.5838159211966802
aF0.33984375
aF-0.34906585039900007
aF1.03984375
aF0.27925
aF0.7109375
aF-0.34906585039900007
aF0.48874999999999996
aF0.8760274109864006
aF1.134478024013328
aF0.118759577841
aF1.2217304764
aF-0.469848775598
aF0.053750000000000006
aa(lp16
F0.0283404352935
aF0.965
aF0.0965
aF0.4615
aF-0.349065850399
aF0.8570359732722901
aF0.2527265625
aF0.38333673231355725
aF-0.349065850399
aF0.6377821162829518
aF0.5177204437451595
aF0.14637670898437502
aF0.546494936763
aF1.2217304764
aF-0.477348775598
aF0.08125
aa(lp17
F-0.308549479928
aF0.16235336406945658
aF1.315204634894765
aF0.314439969080067
aF-0.349065850399
aF0.070703125
aF1.0710112818894004
aF0.47868506633972263
aF-0.349065850399
aF0.1575
aF0.01575
aF1.57079632679
aF0.730829143536
aF1.2217304764
aF-0.501098775598
aF0.0225
aa(lp18
F-0.06130241153999999
aF0.341522041065
aF1.57079632679
aF0.004
aF-0.349065850399
aF0.27695836453816103
aF1.4042484203632288
aF0.14870452880859375
aF-0.349065850399
aF0.0925
aF1.57079632679
aF0.00925
aF0.270027246495
aF1.2217304764
aF-0.216111357383
aF0.6029038361
aa(lp19
F-0.34906585039899996
aF0.19710230827331543
aF0.6238815569683167
aF0.38063671875
aF-0.34906585039899996
aF0.022401809692382812
aF1.16806308908859
aF0.025776809692382812
aF-0.34906585039899996
aF0.0164794921875
aF0.9688756771047529
aF0.2331044921875
aF0.658819505168
aF1.2217304764
aF-0.482348775598
aF0.935757903729
aa(lp20
F-0.349065850399
aF0.7282130674505428
aF1.0773639748177954
aF0.1231953125
aF-0.349065850399
aF0.7590116028576313
aF1.075358543611562
aF0.2027734375
aF-0.349065850399
aF0.6848619750492897
aF1.2019355896586572
aF0.044921875
aF-0.660947551197
aF1.2217304764
aF0.523598775598
aF1.00480481824
aa(lp21
F0.28381287723
aF0.6841858388815221
aF0.8007647299446292
aF0.22628333375664578
aF-0.349065850399
aF0.9361413467629504
aF0.18203125
aF0.11328125
aF-0.349065850399
aF0.9067646972348168
aF0.12628515625
aF0.06103515625
aF0.49622665771432056
aF1.2217309190189798
aF-0.4270343920038878
aF0.09664222717285156
aa(lp22
F0.052746005281703354
aF0.13874999999999998
aF1.5707963267948966
aF0.013875000000000005
aF-0.3490658503988659
aF0.49875000000000036
aF0.333356061673071
aF1.5707963267948966
aF-0.3490658503988659
aF0.4812500000000003
aF0.14587500000000012
aF1.5707963267948966
aF0.5260621516793095
aF1.2217304763960306
aF-0.47984877559829875
aF0.043750000000000004
aa(lp23
F-0.34906585039899996
aF0.34509033485463525
aF1.0289921447667079
aF0.322265625
aF-0.34906585039899996
aF0.3404133684158642
aF0.7885910125014877
aF0.7735156249999999
aF-0.34906585039899996
aF0.1015625
aF1.029108612538717
aF0.529296875
aF-0.657197551197
aF0.39
aF-0.133598775598
aF1.57079632679
aa(lp24
F-0.349065850399
aF0.4341832758733898
aF1.0991195800576903
aF0.4386657054567803
aF-0.349065850399
aF0.4932008955551621
aF1.145364345591951
aF0.123046875
aF-0.349065850399
aF0.43027576893805175
aF0.9438942057946069
aF0.42923480286862503
aF0.469622478647
aF1.2217304764000003
aF-0.40893823329
aF0.09375
aa(lp25
F0.193300884893
aF0.978290775585
aF0.503173828125
aF0.608070520206
aF-0.349065850399
aF1.09332350646
aF0.407625
aF0.407625
aF-0.349065850399
aF0.91625
aF0.5779531250000001
aF0.486328125
aF0.03199634565
aF1.2217304764
aF-0.49109877559799997
aF0.2225
aa(lp26
F-0.349065850399
aF0.8462109375
aF0.5774021490684156
aF0.47046093749999995
aF-0.349065850399
aF1.1225
aF0.11225000000000002
aF0.24825
aF-0.349065850399
aF0.6113890666890001
aF0.8315792237592037
aF0.35530468750000005
aF0.320357678443
aF1.2217304764
aF-0.518598775598
aF0.4775
aa(lp27
F-0.250244232282
aF0.9870703125
aF0.4970703125
aF0.5460703124999999
aF-0.349065850399
aF1.23875
aF0.12387500000000001
aF0.426875
aF-0.349065850399
aF1.05798095703125
aF0.308421875
aF0.4219252170867742
aF-0.129194679657
aF1.2217304764
aF-0.166865341529
aF0.22650304276899996
aa.