(lp0
(lp1
F-0.131246119443
aF0.3625
aF1.57079632679
aF0.03624999999999999
aF-0.349065850399
aF0.2490234375
aF1.5705980227590581
aF0.25194581820821327
aF-0.349065850399
aF0.0927734375
aF1.5707224488207607
aF0.2649096780274307
aF0.9765181598660937
aF1.2219631510703126
aF0.39068571427371096
aF0.93578125
aa(lp2
F-0.349065850399
aF0.592849578857422
aF0.5092187400893607
aF0.4837245788574219
aF-0.349065850399
aF0.84375
aF0.209375
aF0.209375
aF-0.349065850399
aF0.72875
aF0.157375
aF0.605014763097
aF0.45049439259800006
aF1.2217304764
aF-0.462348775598
aF0.744562148768
aa(lp3
F-0.349065850399
aF0.25
aF1.091462661367726
aF0.29002224517039776
aF-0.349065850399
aF0.24342988513505248
aF1.000507108542013
aF0.217296875
aF-0.349065850399
aF0.05901336669921875
aF0.8199869694427651
aF0.666750296383177
aF0.450235786587
aF0.810851779561
aF-0.378598775598
aF0.145
aa(lp4
F0.161108999367
aF0.095625
aF1.57079632679
aF0.0095625
aF-0.349065850399
aF0.0271249541346
aF1.57079632679
aF0.0020625
aF-0.349065850399
aF0.20015407510497757
aF0.8075079072345269
aF0.5784999268932767
aF0.236338357251
aF1.2217304764
aF0.402150374667
aF0.008125
aa(lp5
F0.272834375646
aF0.19
aF1.57079632679
aF0.019
aF-0.349065850399
aF0.1075
aF1.57079632679
aF0.01075
aF-0.349065850399
aF0.0751953125
aF1.3547722531294768
aF0.11793583484038273
aF0.143312720463
aF1.2217304763999999
aF0.523598775598
aF0.08
aa(lp6
F-0.349065850399
aF0.6766713204223174
aF1.1926564478124566
aF0.31755376554604187
aF-0.349065850399
aF0.340426477
aF1.57079632679
aF0.028125
aF-0.349065850399
aF0.148882604808891
aF1.5477133540041985
aF0.134765625
aF-0.10155228366541255
aF1.2218615533049924
aF0.203546429721967
aF0.9100781250000001
aa(lp7
F-0.349065850399
aF1.04625
aF0.104625
aF0.104625
aF-0.349065850399
aF0.26125
aF1.57079632679
aF0.026125
aF-0.349065850399
aF0.173828125
aF1.2611948416789487
aF0.19026454325349906
aF0.170303711939
aF0.528469974818
aF-0.456098775598
aF0.0675
aa(lp8
F-0.349065850399
aF0.8139829431135799
aF0.49295353659273666
aF0.44777867944649674
aF-0.349065850399
aF0.8738484200368457
aF0.224828125
aF0.19156139941775494
aF-0.349065850399
aF0.23125
aF0.9727343749999999
aF0.474609375
aF0.699451333454
aF1.2217304764
aF-0.522348775598
aF0.00125
aa.