(lp0
(lp1
F0.2872086062130906
aF1.1884881257473718
aF0.002
aF0.49762500000000043
aF-0.3490658503988659
aF1.176250000000001
aF0.11762500000000009
aF0.4826250000000004
aF-0.3490658503988659
aF1.0987500000000008
aF0.8377048201323198
aF1.4457347688882998
aF-0.039650324155875036
aF1.2217304763960306
aF0.5235987755982988
aF0.06375
aa(lp2
F-0.349065850399
aF0.350625
aF0.9070156250000001
aF0.9070156250000001
aF-0.349065850399
aF0.30562500000000004
aF1.1427115975960005
aF0.53759375
aF-0.349065850399
aF1.058125
aF0.1058125
aF1.57079632679
aF0.789511446148
aF1.2217304764
aF-0.445473775598
aF0.078125
aa(lp3
F-0.349065850399
aF1.055902069597122
aF0.22265625
aF0.22527924355447349
aF-0.349065850399
aF1.045
aF0.10450000000000001
aF0.5297499999999999
aF-0.349065850399
aF0.8900000000000001
aF1.41326059476
aF1.57
aF0.581108206524
aF1.2217304764
aF-0.444848775598
aF0.07875
aa(lp4
F-0.123506847086
aF0.8357690440556527
aF0.1669507249076414
aF0.010981818246668995
aF-0.349065850399
aF0.7277416685103179
aF0.16829309082031246
aF0.1160430908203125
aF-0.349065850399
aF0.545
aF1.21648135964
aF0.0545
aF0.116748824921
aF1.2217304764
aF0.496019137601
aF0.06
aa(lp5
F-0.349065850399
aF0.46785650912297183
aF1.4129008809712271
aF0.01636326313018799
aF-0.349065850399
aF0.14125
aF1.57079632679
aF0.014125
aF-0.349065850399
aF0.17883565630423515
aF1.5707963267948966
aF0.0335
aF0.523168791873
aF0.68371841132
aF-0.424848775598
aF0.223518106899
aa(lp6
F-0.349065850399
aF0.7095058847239999
aF1.0402239044819415
aF0.193359375
aF-0.349065850399
aF0.7493359652232233
aF0.5400701163970352
aF0.484375
aF-0.349065850399
aF1.113125
aF0.58815625
aF0.58815625
aF-0.05220472473172933
aF1.221742320695033
aF0.271148607118709
aF0.43736798781408925
aa(lp7
F-0.349065850399
aF0.265961735488
aF1.57079632679
aF0.0015
aF-0.349065850399
aF0.20670180335333166
aF1.4216662960707254
aF0.24281384277343748
aF-0.349065850399
aF0.4904087019891732
aF1.1866818577588059
aF0.9018882853001005
aF-0.0111108257552
aF1.2217304764
aF0.523598775598
aF0.282389279986
aa(lp8
F-0.349065850399
aF1.13261643601
aF0.868840427574
aF0.0416875
aF-0.349065850399
aF1.251875
aF0.1251875
aF1.0633080532
aF-0.349065850399
aF1.0782642479986126
aF0.7144030280068394
aF0.2569296875
aF0.217846665213
aF1.2217304764
aF-0.477973775598
aF0.045625
aa(lp9
F-0.349065850399
aF0.582102056541
aF1.4185941823922266
aF0.1416015625
aF-0.349065850399
aF0.7705013411618449
aF0.8419541015625001
aF0.4185791015625
aF-0.248635075902
aF0.47707557553375685
aF1.0357767418863801
aF0.518279413263
aF0.46178545955999994
aF1.2217304764
aF-0.389848775598
aF0.13375
aa(lp10
F-0.34906585039900007
aF1.2133183948085484
aF0.25975933837890625
aF0.25552245056204725
aF-0.34906585039900007
aF1.0384041158916635
aF0.4572051189290205
aF0.3564453125
aF-0.34906585039900007
aF1.0339601708516346
aF0.1337890625
aF0.16174461983024593
aF0.340005300344
aF1.2217304764
aF-0.438598775598
aF0.557320080837
aa(lp11
F0.238267667564
aF0.11375
aF1.57079632679
aF0.011375
aF0.14253234490749056
aF0.461328125
aF0.9780554769639336
aF0.09007812500000001
aF-0.349065850399
aF0.96
aF1.04901591315
aF0.096
aF0.790149749324
aF1.2217304764
aF-0.361098775598
aF0.1625
aa(lp12
F-0.349065850399
aF0.73652644359071
aF0.5517087998118451
aF0.5992563501116204
aF-0.349065850399
aF0.82069617242
aF0.0015
aF1.57
aF-0.349065850399
aF0.428125
aF0.628826872797
aF0.994179090979
aF0.552696280615
aF1.2217304764
aF-0.457973775598
aF0.065625
aa(lp13
F-0.34906585039900007
aF0.8387856024734768
aF1.0421085043664602
aF0.0
aF-0.21418465194728842
aF0.8312444274988133
aF0.9579073791503908
aF0.0
aF-0.0794393423309
aF0.631042246259
aF1.18227442886
aF0.012125
aF-0.10485982846299999
aF1.2217304764
aF0.523598775598
aF0.06875
aa(lp14
F-0.349065850399
aF0.47624999999999995
aF0.6880312499999999
aF0.6880312499999999
aF-0.349065850399
aF0.69625
aF0.398625
aF0.398625
aF-0.349065850399
aF0.58859375
aF0.7633343241245116
aF0.42096874999999995
aF0.215146586912
aF1.2217304764
aF0.523598775598
aF0.00375
aa(lp15
F-0.3490658503988659
aF1.5412500000000011
aF1.5707963267948966
aF1.5707963267948966
aF-0.3490658503988659
aF0.9412500000000006
aF0.49812500000000043
aF0.49812500000000043
aF-0.3490658503988659
aF0.1402158265553438
aF1.5707963267948966
aF0.012875000000000004
aF0.40676025944591376
aF0.8276073849806547
aF-0.46359877559829876
aF0.060000000000000005
aa(lp16
F-0.349065850399
aF0.9249267795236684
aF0.6197767308376756
aF0.8873209209290198
aF-0.349065850399
aF0.8787499999999999
aF0.816453125
aF0.569593346357455
aF-0.349065850399
aF0.62875
aF0.9802791918009999
aF0.47401847506088957
aF0.202163051252
aF0.9652282882309999
aF-0.367348775598
aF0.15625
aa(lp17
F0.149227496226
aF0.33625
aF1.45952828031
aF0.59548762657
aF-0.349065850399
aF0.1328125
aF1.2666852175965164
aF0.375032972143
aF-0.349065850399
aF0.3056640625
aF0.9413475010074037
aF0.3861640625
aF0.324234080741
aF0.739575181324
aF-0.143052298202
aF0.01875
aa(lp18
F-0.349065850399
aF0.594988961386326
aF1.0923378650977411
aF0.39775270155607156
aF-0.349065850399
aF0.38812460377183444
aF1.5707900204300755
aF0.0079193115234375
aF-0.306526352996
aF0.32549807147048937
aF1.57
aF0.05578136808367096
aF0.28685778273251317
aF1.221795225230578
aF-0.09338461661644921
aF0.240234375
aa(lp19
F0.178499443543
aF1.361875
aF0.1361875
aF0.66125
aF-0.141852270431
aF1.089375
aF0.494111907294
aF0.527394379493
aF-0.34906585039899996
aF0.6614301429274618
aF0.9266607418306849
aF0.37890625
aF0.414198070634
aF1.2217304764
aF-0.514223775598
aF0.009375
aa(lp20
F-0.34906585039899996
aF0.473125
aF1.57079632679
aF0.0473125
aF-0.34906585039899996
aF0.216796875
aF1.5706236856342841
aF0.37938418967459686
aF-0.34906585039899996
aF0.0869140625
aF1.4461601086914926
aF0.10210156249999999
aF-0.05670131632316111
aF1.2219958611783912
aF0.5066808441328067
aF0.41046669356124355
aa(lp21
F0.191771896442
aF0.5477135909151885
aF1.387062080564725
aF0.141401123046875
aF0.189468699112
aF0.47708619027099997
aF1.57079632679
aF0.030625
aF-0.349065850399
aF0.38531441499870356
aF1.570550318001417
aF0.3625172114226598
aF-0.27364481259735485
aF1.2219757849887058
aF0.4459393678173672
aF0.9587480771425723
aa(lp22
F-0.349065850399
aF0.1513671875
aF1.3047863611861676
aF0.1513671875
aF-0.349065850399
aF0.1413116455078125
aF1.166508780211383
aF0.1413116455078125
aF-0.349065850399
aF0.0275
aF1.57079632679
aF0.00275
aF-0.0021975511966
aF1.045
aF0.5198815561
aF1.045
aa(lp23
F-0.05736642237060001
aF1.5350000000000001
aF1.57
aF1.4423231930895
aF-0.0717250420658
aF0.12
aF1.57079632679
aF0.739649630632
aF-0.115806278964
aF0.315
aF0.8964375
aF0.8964375
aF-0.557197551197
aF0.49
aF0.520742249426
aF0.49
aa(lp24
F0.17133099589493853
aF0.76314453125
aF0.21068749999999997
aF0.6938395694431785
aF-0.013598323388646721
aF0.43355222502162316
aF1.1123110644826073
aF0.108578125
aF-0.05267858786133876
aF0.5278110618330156
aF0.8059992301131823
aF0.6911093749999999
aF0.755544772495
aF1.2217304764
aF-0.463598775598
aF0.38874999999999993
aa(lp25
F0.12061269029999999
aF0.8977824455800505
aF0.7406678379896747
aF0.20531536865234373
aF-0.34906585039899996
aF0.7715189026979402
aF0.7821074358200457
aF0.1597782088259125
aF-0.34906585039899996
aF1.065
aF0.10650000000000001
aF0.439415511696
aF-0.0494627614922
aF1.2217304764
aF0.523598775598
aF0.24124999999999996
aa(lp26
F-0.349065850399
aF0.195625
aF1.57079632679
aF0.0195625
aF-0.349065850399
aF0.15576171875
aF1.3777689362144623
aF0.2641232122364272
aF-0.349065850399
aF0.267791748046875
aF1.3799216826052798
aF0.267791748046875
aF0.374884482294
aF1.2217304764
aF-0.20084185290399997
aF0.85256419987
aa(lp27
F-0.349065850399
aF0.6714499280737058
aF0.37578125
aF0.3248769755094123
aF-0.349065850399
aF0.36420578581127394
aF0.8372324223574463
aF0.12990624999999997
aF-0.349065850399
aF0.341875
aF0.4971875
aF0.4971875
aF0.6995115738419999
aF0.597948934878
aF-0.3717237755980001
aF0.151875
aa(lp28
F-0.349065850399
aF0.23375
aF1.57079632679
aF0.320336381849
aF-0.349065850399
aF0.16625
aF1.41245711003
aF0.072375
aF-0.349065850399
aF0.16005859375
aF0.543715134285
aF0.6793851036259158
aF1.0471975512
aF0.407487791559
aF-0.482348775598
aF0.04125
aa(lp29
F-0.34906585039899996
aF0.48157774276633514
aF1.2879516102190214
aF0.18723906529308532
aF-0.34906585039899996
aF0.47543161405883927
aF1.1282317422351569
aF0.26858604814163023
aF-0.34906585039899996
aF0.34039664312991247
aF1.359376442596738
aF0.197265625
aF-0.10145536369699995
aF1.2218175977953605
aF0.523728468251381
aF0.9287719726562501
aa.