(lp0
(lp1
F-0.349065850399
aF0.3510513177826464
aF1.1551784554203437
aF0.138671875
aF-0.349065850399
aF0.4274255027177988
aF1.268094428197631
aF0.13121795654296875
aF-0.349065850399
aF0.6592955153140705
aF0.9903239656793195
aF0.0
aF0.44147162697
aF1.2217304764
aF-0.436098775598
aF0.11521490736199999
aa(lp2
F-0.349065850399
aF0.639375
aF0.920026302025
aF0.0639375
aF-0.349065850399
aF0.6589596946781819
aF1.0662235821614783
aF0.2197113037109375
aF-0.349065850399
aF0.555481592106
aF1.5397279884
aF0.0191875
aF0.12403067321706249
aF1.2217589068297912
aF-0.3152561706067131
aF0.19310701913929607
aa.