(lp0
(lp1
F-0.25829758496794875
aF0.5067326659895177
aF0.11915755134529116
aF0.7318541497987567
aF-0.34906585039899996
aF0.15041386518409183
aF0.8660444923528183
aF0.1484375
aF-0.34906585039899996
aF0.1640625
aF0.1773125
aF0.20915800865425638
aF0.577908984869
aF0.531451260552
aF-0.363598775598
aF0.16
aa(lp2
F-0.349065850399
aF0.16431396171245893
aF1.0468511094544963
aF0.1533203125
aF-0.349065850399
aF0.1357421875
aF1.0863973677808998
aF0.28796597769434573
aF-0.349065850399
aF0.086875
aF1.15846327336
aF0.0086875
aF0.404147544262
aF1.2217304764
aF0.166760241288
aF0.476635527819
aa(lp3
F-0.3490658503988659
aF1.5475000000000012
aF0.4977500000000004
aF1.5707963267948966
aF-0.3490658503988659
aF1.4657025544321585
aF0.7928377174004662
aF0.06075000000000005
aF0.1512230217131431
aF1.5707963267948966
aF0.2627500000000002
aF0.2627500000000002
aF-0.9709475511965975
aF1.2217304763960306
aF0.5235987755982988
aF0.8136717401467393
aa(lp4
F-0.34906585039899996
aF1.5343750000000003
aF1.5343750000000003
aF1.5343750000000003
aF-0.34906585039899996
aF0.4025
aF0.54223154603
aF0.55549110945
aF-0.34906585039899996
aF0.26
aF0.026
aF1.57
aF0.5923809381457283
aF0.9003161052947901
aF-0.2738304051380193
aF0.5666089869127591
aa(lp5
F-0.349065850399
aF0.30459879911063237
aF1.4566058117755776
aF0.1240234375
aF-0.349065850399
aF0.3479906126371758
aF1.2099682827388853
aF0.8123371279805216
aF-0.349065850399
aF0.22957577289288267
aF1.5706252409600556
aF0.4398536724186828
aF-0.107197551197
aF1.2217304764
aF0.416401224402
aF1.18802907136
aa(lp6
F0.218080218376
aF1.530852849807368
aF1.1420672873150446
aF1.4335
aF-0.349065850399
aF0.12908935546875
aF1.056993836444758
aF0.12908935546875
aF-0.349065850399
aF0.046875
aF0.7601789071777572
aF0.07141035547593688
aF0.7871497349699998
aF0.0625
aF-0.46109877559799994
aF0.0825
aa(lp7
F0.349065850399
aF1.55311108519
aF0.0725
aF0.0725
aF-0.349065850399
aF1.0540076130419098
aF1.4249261698494435
aF0.06354542558031895
aF-0.349065850399
aF0.9104398666177104
aF1.5706781220321095
aF0.1484375
aF-0.802197551197
aF1.2217304764
aF0.523598775598
aF1.25114287499
aa(lp8
F-0.07350955546093932
aF0.8350000000000005
aF0.08350000000000006
aF0.8761322425186943
aF-0.3490658503988659
aF0.847545054176221
aF0.026375000000000016
aF1.5707963267948966
aF-0.3490658503988659
aF0.6562500000000003
aF0.06562500000000004
aF1.5707963267948966
aF0.43352807672460925
aF1.2217304763960306
aF-0.3848487755982987
aF1.5707963267948966
aa(lp9
F-0.3490658503988659
aF1.5483668834275703
aF0.4980625000000004
aF1.5707963267948966
aF-0.3490658503988659
aF0.9106250000000007
aF0.09106250000000007
aF0.09106250000000007
aF-0.3490658503988659
aF0.18062500000000004
aF1.2513363337495265
aF0.01806250000000001
aF0.2394533629024163
aF1.2217304763960306
aF-0.3954737755982987
aF1.5707963267948966
aa(lp10
F-0.349065850399
aF0.6066491472491453
aF1.4314637577852476
aF0.1552734375
aF-0.349065850399
aF0.62875
aF1.57079632679
aF0.062875
aF-0.349065850399
aF0.61375
aF1.57079632679
aF0.061375
aF-0.762197551197
aF1.2217304764
aF0.523598775598
aF1.57079632679
aa(lp11
F0.281349744076
aF0.03
aF0.422943325018
aF0.649828716674
aF-0.34906585039899996
aF0.26953125
aF0.27928125
aF0.2741879385778043
aF-0.34906585039899996
aF0.7109375
aF0.7206631867041082
aF0.7897172668993973
aF1.0471967795156252
aF1.2217315292265625
aF-0.489692525598
aF0.448245475612
aa(lp12
F-0.3490658503988659
aF0.37750000000000017
aF0.03775000000000003
aF0.03775000000000003
aF-0.3490658503988659
aF0.05
aF0.005000000000000001
aF1.5707963267948966
aF-0.3490658503988659
aF0.045
aF0.0045000000000000005
aF1.2068065792736695
aF1.0471975511965976
aF1.2217304763960306
aF-0.46359877559829876
aF0.060000000000000005
aa(lp13
F-0.349065850399
aF0.985
aF1.57079632679
aF0.0985
aF-0.349065850399
aF1.193465155591921
aF1.0222550240888082
aF0.1539306640625
aF-0.349065850399
aF1.19915636444
aF0.923949909024
aF0.00575
aF-0.473550630598
aF1.2217304764
aF0.523598775598
aF0.105
aa(lp14
F-0.0342584326757
aF1.4073775839295664
aF0.41354795476525386
aF0.165421875
aF-0.34906585039899996
aF1.4419564670184875
aF0.2548021770664919
aF0.13480468750000002
aF-0.34906585039899996
aF1.29772040851
aF0.280665237345
aF0.1045
aF-0.6876744180159999
aF0.858690626667
aF0.523598775598
aF0.05375
aa(lp15
F-0.3490658503988659
aF1.542500000000001
aF1.4762206791562966
aF1.5707963267948966
aF-0.3490658503988659
aF1.5002422408035918
aF0.2622500000000002
aF0.7175021437564539
aF-0.3224969661738758
aF1.532500000000001
aF0.1532500000000001
aF0.1532500000000001
aF-0.2417727598782622
aF1.2217304763960306
aF-0.3685987755982987
aF1.4760084153863797
aa(lp16
F-0.349065850399
aF1.54375
aF0.326375
aF0.326375
aF-0.349065850399
aF1.49758884305
aF0.340375
aF0.340375
aF-0.349065850399
aF1.421975884639657
aF0.3917569367328033
aF0.22128124999999998
aF-0.613447551197
aF1.2217304764
aF0.286477858752
aF1.57079632679
aa(lp17
F-0.349065850399
aF1.485
aF0.34771875
aF0.19921875
aF-0.349065850399
aF1.493551508
aF0.3070793241166019
aF0.294921875
aF0.139191726149
aF1.57079632679
aF0.07975
aF0.07975
aF-0.919697551197
aF1.2217304764
aF0.523598775598
aF1.2495583572
aa(lp18
F-0.349065850399
aF0.18486404418945312
aF1.5706491146030956
aF0.18486404418945312
aF-0.349065850399
aF0.2879506701574984
aF1.5706995259921082
aF0.12155956866696327
aF-0.349065850399
aF0.333125
aF1.57079632679
aF0.0333125
aF0.182767562584
aF1.2217304764
aF-0.44547377559799994
aF1.57079632679
aa(lp19
F-0.349065850399
aF1.5325
aF0.36653904498598433
aF0.0
aF-0.349065850399
aF1.49988550033
aF0.47090596931495377
aF0.0
aF-0.0307777541985
aF1.57079632679
aF0.17325
aF0.17325
aF-0.882197551197
aF1.2217304764
aF0.523598775598
aF1.02424127327
aa(lp20
F0.3490658503988659
aF1.5503369167046839
aF0.4975000000000004
aF1.5707963267948966
aF-0.07824735410814887
aF1.5028220693819412
aF1.5707963267948966
aF1.5707963267948966
aF-0.3490658503988659
aF1.4789740903427588
aF0.25823262414249165
aF0.021500000000000012
aF-0.5074158479655608
aF1.2217304763960306
aF0.5235987755982988
aF0.21500000000000005
aa(lp21
F-0.3490658503988659
aF0.7537500000000004
aF0.07537500000000005
aF0.3723750000000003
aF-0.3490658503988659
aF0.6972583609035885
aF0.004
aF1.2874951833333492
aF-0.3490658503988659
aF0.6550000000000004
aF0.06550000000000004
aF0.4963750000000004
aF-0.5371975511965972
aF0.5100000000000002
aF-0.013598775598298496
aF1.0437500000000006
aa(lp22
F0.233283876586
aF0.3775
aF1.57079632679
aF0.03775
aF0.0165128986213
aF0.5040897709402083
aF1.2008303788093646
aF0.6433046875
aF-0.349065850399
aF0.385
aF1.57079632679
aF0.0385
aF-0.0338151232499
aF1.2217304764
aF-0.113598775598
aF1.57079632679
aa(lp23
F-0.349065850399
aF0.16625
aF1.11710738022
aF1.57079632679
aF-0.349065850399
aF0.4200855354584122
aF1.033604222550527
aF0.698921875
aF-0.275759557758
aF0.12
aF1.57079632679
aF0.012
aF0.436885616782
aF1.2217304764
aF-0.362348775598
aF1.57079632679
aa(lp24
F-0.349065850399
aF0.4983203125
aF1.1558055672153675
aF0.0908203125
aF-0.349065850399
aF0.3375
aF1.57079632679
aF0.03375
aF-0.349065850399
aF0.42693236799361856
aF1.2944081972709764
aF0.0595703125
aF-0.135540497154
aF1.2217304764
aF-0.197775577099
aF1.57079632679
aa(lp25
F-0.349065850399
aF0.47635056686532207
aF0.7913331263548458
aF0.0
aF-0.349065850399
aF0.2735976126782099
aF1.0728425485411268
aF0.0
aF-0.349065850399
aF0.15132636260586096
aF1.0888053653356968
aF0.0
aF0.627583963462
aF1.2217304764
aF-0.496723775598
aF0.706166514243
aa(lp26
F-0.17787819617024417
aF1.1509517313805393
aF0.8252653149290363
aF0.6096891140524052
aF-0.349065850399
aF1.4975
aF0.21975
aF0.478376519576
aF0.10117168712899999
aF1.57079632679
aF0.12975
aF0.12975
aF-0.839697551197
aF1.2217304764
aF0.523598775598
aF1.41855326105
aa(lp27
F0.22342950748899998
aF1.02352046364
aF1.32104855106
aF0.046375
aF-0.349065850399
aF1.2750207761723473
aF0.9730709489179882
aF0.0
aF-0.349065850399
aF1.147411257662237
aF0.9709215788770441
aF0.1248779296875
aF-0.204424140398
aF1.2217304764
aF0.059169643918199996
aF0.1475
aa(lp28
F-0.3490658503988659
aF1.543750000000001
aF0.4983750000000004
aF0.4983750000000004
aF-0.3490658503988659
aF0.9137500000000006
aF1.0588129529221213
aF0.09137500000000007
aF-0.3490658503988659
aF0.3737500000000002
aF0.6841508867150043
aF0.037375000000000026
aF0.2870632074813295
aF0.8908148547685393
aF-0.17436920531941666
aF0.04625
aa.