(lp0
(lp1
F0.24088491052300004
aF0.015
aF0.6075468749999999
aF0.529296875
aF-0.349065850399
aF0.32375
aF0.29225
aF0.41125
aF-0.349065850399
aF0.32828590393066404
aF0.4035564054506641
aF0.20203590393066406
aF-0.714697551197
aF1.2217304764
aF0.523598775598
aF0.3325
aa(lp2
F-0.15804088309
aF0.7708439184563878
aF0.7079857782821362
aF0.32150390625
aF-0.349065850399
aF0.6225476442458714
aF0.7841901995352227
aF0.7607782715721279
aF-0.349065850399
aF0.48625
aF1.1785045169487127
aF0.133
aF-0.972197551197
aF1.2217304764
aF-0.448598775598
aF1.08475910977
aa.