(lp0
(lp1
F-0.3490658503988659
aF0.3187500000000001
aF0.43259084992883184
aF0.03187500000000002
aF-0.3490658503988659
aF0.2800000000000001
aF0.028000000000000018
aF1.5707963267948966
aF-0.3490658503988659
aF0.23750000000000007
aF0.023750000000000014
aF1.5707963267948966
aF-0.31594755119659695
aF1.2217304763960306
aF0.5235987755982988
aF1.5707963267948966
aa(lp2
F-0.349065850399
aF0.9871734423895113
aF1.06564220804472
aF0.921675874373332
aF-0.349065850399
aF0.5425
aF1.57079632679
aF0.05425000000000001
aF-0.349065850399
aF0.43
aF1.57079632679
aF0.043
aF-0.446059526038
aF0.963911484035
aF0.523598775598
aF0.9875
aa(lp3
F-0.184320820963
aF1.16037361546
aF1.57079632679
aF0.025
aF-0.349065850399
aF1.49375
aF0.9417682133331708
aF0.17578125
aF-0.349065850399
aF1.136059265136719
aF0.369591796875
aF0.272216796875
aF-0.325947551197
aF0.72125
aF0.197651224402
aF0.72125
aa(lp4
F-0.349065850399
aF1.14375
aF1.57079632679
aF0.114375
aF-0.349065850399
aF0.7975
aF1.57079632679
aF0.07975
aF-0.349065850399
aF1.2064344002866183
aF0.078125
aF0.078125
aF-0.529697551197
aF1.2217304764
aF0.523598775598
aF1.57079632679
aa(lp5
F-0.3490658503988659
aF1.534375
aF1.5347526238425226
aF1.534375
aF-0.349065850399
aF0.3
aF0.03
aF1.57079632679
aF-0.349065850399
aF0.13
aF0.013
aF0.013
aF-0.729697551197
aF1.2217304764
aF0.523598775598
aF1.57
aa(lp6
F-0.349065850399
aF0.9520282630480708
aF0.09882971690531872
aF0.6452771844747993
aF-0.349065850399
aF0.27625
aF1.57079632679
aF0.027625
aF-0.265600788564
aF0.21875
aF1.57079632679
aF0.021875
aF0.653678225874
aF0.394377991283
aF-0.486098775598
aF0.34625
aa(lp7
F-0.3490658503988659
aF0.6075000000000005
aF1.5707963267948966
aF0.4559335975350163
aF-0.3490658503988659
aF0.07500000000000001
aF0.0075
aF1.5707963267948966
aF-0.3490658503988659
aF0.05
aF0.005
aF0.005
aF-0.42655239581402005
aF1.2217304763960306
aF0.5235987755982988
aF1.5707963267948966
aa.