(lp0
(lp1
F-0.349065850399
aF0.5274609375
aF0.4599609375
aF0.46671093750000003
aF-0.349065850399
aF0.4175
aF0.04175
aF1.57079632679
aF-0.349065850399
aF0.12
aF0.2515
aF1.57079632679
aF-0.182197551197
aF0.865
aF0.341401224402
aF0.865
aa(lp2
F-0.34906585039899996
aF0.18652220458816926
aF0.9816190053191045
aF0.289993408203125
aF-0.34906585039899996
aF0.1083984375
aF0.9255936822842115
aF0.6056484375
aF-0.34906585039899996
aF0.0975
aF0.648150180462
aF0.809027815529
aF1.0471975512
aF0.0125
aF-0.511098775598
aF0.0125
aa(lp3
F-0.349065850399
aF0.6031506088176384
aF0.7339342823680299
aF0.10229177856445312
aF-0.349065850399
aF0.5848167584407954
aF0.9271377696598692
aF0.0111083984375
aF-0.349065850399
aF0.91375
aF0.091375
aF0.30899080521799993
aF0.504031719487
aF1.2217304764
aF-0.48234877559800005
aF0.04125
aa(lp4
F-0.3490658503988659
aF1.0125000000000006
aF0.19822000522110952
aF0.4179599438304548
aF-0.3490658503988659
aF0.9575000000000006
aF0.09575000000000007
aF0.6675425269244255
aF-0.3490658503988659
aF0.0375
aF1.5707963267948966
aF0.19796716492669061
aF-0.17800571601063014
aF1.2217304763960306
aF0.5235987755982988
aF0.23000000000000007
aa(lp5
F0.248888343276
aF0.4867463765909862
aF1.326329867837929
aF0.20263671875
aF-0.349065850399
aF0.30607014629790796
aF1.406120574279369
aF0.6652880859375
aF-0.349065850399
aF0.22705078125
aF1.530665634692812
aF0.38967073225606663
aF-0.037666073741053685
aF1.221807332736225
aF0.19816945877465575
aF0.8578985028740547
aa(lp6
F0.187777660107
aF0.25551222730103795
aF0.842007531746624
aF0.4844366774022415
aF-0.349065850399
aF0.101318359375
aF0.9791094881690958
aF0.6216882473345657
aF-0.323419412347
aF0.1259765625
aF0.7118836550681933
aF0.7552796593762843
aF0.653286248384
aF1.2217304764
aF-0.301098775598
aF0.22250000000000003
aa(lp7
F-0.349065850399
aF0.5117761660291348
aF0.651362451495357
aF0.5119582519531249
aF-0.349065850399
aF0.43
aF0.744508294045
aF0.788390607892
aF-0.349065850399
aF0.3666695728173486
aF1.0538135194098301
aF0.14926910704299257
aF0.2731850981589569
aF1.2217630482182875
aF-0.012368576887079652
aF0.120849609375
aa(lp8
F0.29786739010499996
aF0.143125
aF0.0143125
aF1.57079632679
aF-0.349065850399
aF0.203125
aF0.0203125
aF1.57079632679
aF-0.349065850399
aF0.160625
aF0.0160625
aF1.57079632679
aF0.4462940373983111
aF1.2219668359627929
aF0.4542024586564192
aF0.38216296478903766
aa(lp9
F0.15364340894845835
aF0.728980205828101
aF0.6306814749084078
aF0.0
aF-0.34906585039900007
aF0.7267508188221012
aF0.5227120940875238
aF0.13945422363281249
aF-0.34906585039900007
aF0.5703344838776152
aF0.7273730794394373
aF0.063484375
aF0.44471368983699316
aF1.2217769652696155
aF-0.34111342403550005
aF0.2169046276457
aa(lp10
F-0.34906585039899996
aF0.23265838623046875
aF0.6025319438604688
aF0.23265838623046875
aF-0.34906585039899996
aF0.0361328125
aF0.577216972621
aF0.934814556161749
aF-0.34906585039899996
aF0.098236083984375
aF0.109111083984375
aF0.6613475484217108
aF1.04352532757
aF1.2217304764
aF-0.507348775598
aF0.01625
aa(lp11
F-0.34906585039899996
aF0.4520783975748969
aF0.62994344092412
aF0.4375187787860222
aF-0.34906585039899996
aF0.657621085900125
aF0.5582988019376307
aF0.09881741333007812
aF-0.34906585039899996
aF0.7318180741637751
aF0.4306881923751087
aF0.07629203796386719
aF0.21364895228851832
aF1.2217304763960306
aF0.3609158450097344
aF0.025053788252134335
aa(lp12
F-0.159161921262
aF0.28515625
aF0.47284375
aF0.28515625
aF-0.34906585039899996
aF0.35235595703125
aF0.38404345703125004
aF0.7710533107381154
aF-0.34906585039899996
aF0.291717529296875
aF0.487773593369875
aF0.291717529296875
aF0.618148598335
aF0.617097583951
aF-0.519223775598
aF0.004375
aa(lp13
F-0.34906585039900007
aF0.3636282720952524
aF0.8356125381947819
aF0.52761962890625
aF-0.34906585039900007
aF0.07375
aF1.57079632679
aF0.007375
aF-0.34906585039900007
aF0.076171875
aF1.3135229357651537
aF0.25377398184476285
aF0.6529349126520001
aF1.2217304764
aF-0.511098775598
aF0.0125
aa(lp14
F0.0200679758357
aF0.195
aF1.57079632679
aF0.0195
aF-0.349065850399
aF0.48362754693059573
aF1.0718444413252197
aF0.136228515625
aF-0.349065850399
aF0.7631400411101108
aF0.44553036427190507
aF0.25116486565743834
aF0.464043725351
aF1.2217304763999999
aF-0.423598775598
aF0.1
aa(lp15
F-0.349065850399
aF0.05046844482421875
aF1.4113397587844476
aF0.05046844482421875
aF-0.349065850399
aF0.0361328125
aF1.2537906120038944
aF0.3352955943822735
aF-0.295116928305
aF0.025390625
aF1.2662117966603446
aF0.025390625
aF0.23955845735561798
aF1.2219618350371093
aF0.40380168704911135
aF0.0
aa(lp16
F-0.349065850399
aF0.2875
aF1.57079632679
aF0.02875
aF-0.349065850399
aF0.5634765625
aF0.6309765625
aF0.5634765625
aF-0.349065850399
aF0.0517578125
aF0.7187061883475888
aF1.5707551106573145
aF-0.135522994715
aF0.259640775611
aF-0.458598775598
aF0.065
aa(lp17
F-0.0381579832129
aF0.6975
aF0.06975
aF1.57079632679
aF-0.349065850399
aF0.0225
aF1.57079632679
aF0.00225
aF-0.349065850399
aF0.080078125
aF1.0400737519543717
aF0.578828125
aF0.298794067904
aF0.578445394557
aF-0.419848775598
aF0.10375000000000001
aa(lp18
F-0.34906585039899996
aF0.395747691458
aF0.306050266036
aF0.603277635407
aF-0.300444009133
aF0.23271850437136438
aF0.7835935877762497
aF0.34104450832152455
aF-0.34906585039899996
aF0.0791015625
aF0.8709810302121632
aF0.24145601388410132
aF0.330347375206
aF1.2217304764
aF0.480530967524
aF0.02875
aa(lp19
F-0.349065850399
aF0.4818708526299328
aF0.5681521289282623
aF0.8169264560389524
aF-0.349065850399
aF0.2926953125
aF1.1508450588842907
aF0.3565252466726756
aF-0.349065850399
aF0.25453125
aF1.1236930988372202
aF0.3193776403986126
aF0.4309560897146296
aF1.2217819990966918
aF-0.2839067367080503
aF0.23991210937500002
aa(lp20
F-0.349065850399
aF0.6963874216467658
aF0.7260941039528921
aF0.024136425250097182
aF-0.349065850399
aF0.12
aF1.57079632679
aF0.012
aF-0.349065850399
aF0.05260290191238077
aF1.436067304469629
aF0.046875
aF0.12937819314
aF0.746120712123
aF-0.298598775598
aF0.225
aa(lp21
F0.165181416495
aF0.6448281197057071
aF0.42980656967856934
aF0.038909912109375
aF-0.0817145952902
aF0.39417243729583806
aF0.7923673505404947
aF0.3039781698035027
aF-0.349065850399
aF0.0732421875
aF1.070792201683643
aF0.2638367034665565
aF0.762640599771
aF1.2217304764
aF-0.421723775598
aF0.101875
aa.