(lp0
(lp1
F-0.34906585039899996
aF0.5821941945203555
aF0.9223185365738156
aF0.20661289467601884
aF-0.34906585039899996
aF0.245
aF1.55802937721
aF0.0245
aF-0.34906585039899996
aF0.07934850701833385
aF1.5707616235886248
aF0.14833620536616943
aF-0.0024579931970170055
aF0.7237336982285251
aF-0.446411275598
aF1.469345703125
aa(lp2
F-0.349065850399
aF0.5820607838402194
aF0.45459857169983997
aF0.44921875
aF-0.349065850399
aF0.628903812098
aF0.552097884714
aF1.3626875
aF-0.349065850399
aF0.525
aF0.37618013077300005
aF1.57079632679
aF0.567006416517028
aF1.2218678702644603
aF0.03494278774394924
aF0.856517333984375
aa(lp3
F0.2617993877991494
aF1.5214449785242563
aF0.0
aF0.0
aF-0.349065850399
aF1.0622964251280487
aF0.6588097729651656
aF0.3536084315947461
aF-0.349065850399
aF1.0514453124999998
aF0.6241907883406732
aF0.0625
aF-0.518201686787
aF1.2217304764
aF0.523598775598
aF1.07792704953
aa(lp4
F-0.349065850399
aF0.50375
aF0.050375
aF1.57079632679
aF-0.349065850399
aF0.64375
aF0.064375
aF1.36942436257
aF-0.349065850399
aF0.0625
aF0.7522167852
aF1.25754923132
aF0.443146719022121
aF1.1785066031035933
aF0.05976059940199996
aF0.5833593749999999
aa(lp5
F-0.0860719738163
aF0.867485260260533
aF0.9316456852843148
aF0.27921093750000003
aF-0.349065850399
aF0.9065372379990679
aF0.9947228058885904
aF0.12009375000000001
aF-0.349065850399
aF0.9551141166591817
aF0.7365778862836256
aF0.28716109937560796
aF0.132212964723
aF1.2217304764
aF-0.452348775598
aF1.2534435691799999
aa(lp6
F-0.349065850399
aF0.4637051024765153
aF0.6388039850335595
aF0.7336785888671876
aF-0.349065850399
aF0.5552158598122645
aF0.7566593264292303
aF0.246984375
aF-0.349065850399
aF0.1945648193359375
aF0.9551501538855771
aF0.7915236793270788
aF0.5804264654176567
aF1.2218306265242633
aF-0.1145167443480001
aF0.53408203125
aa(lp7
F-0.34906585039900007
aF0.8181723850580926
aF0.41456382527525437
aF0.12390621166390892
aF-0.34906585039900007
aF0.67875
aF0.067875
aF0.85525
aF-0.34906585039900007
aF0.0706200016877
aF1.05147164194
aF0.073875
aF0.754105698138
aF0.00625
aF-0.517348775598
aF0.10625000000000001
aa(lp8
F-0.349065850399
aF0.36453060422692696
aF1.4419485149928728
aF0.351593017578125
aF-0.349065850399
aF0.32135009765625
aF1.5608265919808386
aF0.33425627397456914
aF-0.349065850399
aF0.37392311723588856
aF1.4547179409411153
aF0.20599365234375
aF0.17153640698703343
aF0.967762726349157
aF-0.013573690940108005
aF0.7401194727256328
aa(lp9
F-0.349065850399
aF0.1
aF1.57079632679
aF0.01
aF-0.349065850399
aF0.2607421875
aF1.3301095045841809
aF0.2607421875
aF-0.349065850399
aF0.099609375
aF1.5123662202793755
aF0.099609375
aF0.5938263950001923
aF1.2218544467255907
aF-0.006641721587591798
aF0.5249609375
aa(lp10
F-0.349065850399
aF0.4593491106712423
aF0.5814412890242908
aF0.5852200919237314
aF-0.349065850399
aF0.43236390440970274
aF0.8226969286144311
aF0.2729325712854356
aF-0.349065850399
aF0.4652270058777632
aF0.7623235484243439
aF0.06415266846909293
aF0.21128916520899998
aF1.2217304764
aF0.523598775598
aF0.07875
aa(lp11
F-0.3490658503988659
aF0.3721730247947933
aF0.0085
aF1.5707963267948966
aF-0.3490658503988659
aF0.3900000000000002
aF0.16100000000000012
aF1.5707963267948966
aF-0.3490658503988659
aF0.10999999999999999
aF0.4980000000000004
aF0.4980000000000004
aF1.0391326318744865
aF0.05625000000000001
aF-0.46734877559829874
aF0.05625000000000001
aa(lp12
F-0.349065850399
aF0.8933956032929132
aF1.2140460253749397
aF0.125
aF-0.349065850399
aF1.1211508567321276
aF0.8440311782793839
aF0.20703125
aF-0.349065850399
aF1.062654100730691
aF0.919951008344056
aF0.07421875
aF-0.46469755119699996
aF1.2217304764
aF0.0589012244017
aF1.57079632679
aa(lp13
F-0.349065850399
aF1.48875
aF0.148875
aF0.148875
aF-0.349065850399
aF1.458598482855296
aF0.2012734375
aF0.4005014784076719
aF-0.349065850399
aF1.2281886592035083
aF0.7111407126150704
aF0.2041015625
aF-0.280947551197
aF1.2217304764
aF0.242651224402
aF0.76625
aa(lp14
F-0.34906585039899996
aF0.57875
aF0.057874999999999996
aF0.9353750000000001
aF-0.34906585039899996
aF0.14875
aF0.9699951436530001
aF0.572049593769
aF-0.34906585039899996
aF0.2757681608200073
aF0.6777102006228637
aF0.4180432044131557
aF0.6171715600105414
aF1.2218578684119692
aF-0.001418299631757769
aF0.52390625
aa(lp15
F-0.0062783472594
aF1.371875
aF0.1371875
aF0.1371875
aF-0.349065850399
aF0.930628346143202
aF0.9199373171154908
aF0.11998797607421877
aF-0.349065850399
aF0.7520298245171264
aF1.0674551744803904
aF0.10546875
aF-0.158864343357
aF1.2217304764
aF0.523598775598
aF0.16625
aa.