(lp0
(lp1
F-0.286644409234
aF0.13671875
aF1.097529372877409
aF0.2292404327611206
aF-0.34906585039899996
aF0.052734375
aF1.2072729780771145
aF0.062734375
aF-0.34906585039899996
aF0.0478515625
aF1.03346261091495
aF0.04785773142139993
aF0.3906655362252338
aF1.2219681519960153
aF0.5235987755982988
aF0.0907464124458961
aa(lp2
F-0.349065850399
aF0.144375
aF0.0144375
aF1.57079632679
aF-0.349065850399
aF0.115625
aF0.788816926798
aF0.0115625
aF-0.349065850399
aF0.075
aF0.577875
aF0.5234375
aF0.9741071896090611
aF0.8474847029528705
aF-0.3401694910716172
aF0.18796875000000002
aa(lp3
F-0.3490658503988659
aF0.44371084082491224
aF0.02100000000000001
aF1.5707963267948966
aF-0.3490658503988659
aF0.570746600205096
aF0.008375
aF0.26265470835907323
aF-0.3490658503988659
aF0.17498966460817675
aF0.004375
aF1.4107712554236271
aF1.0471975511965976
aF0.14125
aF-0.38234877559829866
aF0.14125
aa(lp4
F-0.3490658503988659
aF0.6692791171451868
aF0.07235738204619484
aF0.000875
aF-0.2944806045444712
aF0.3606250000000002
aF0.036062500000000025
aF1.5707963267948966
aF-0.3490658503988659
aF0.135625
aF0.45510268346838667
aF1.1745655332119165
aF1.0471975511965976
aF0.048125000000000015
aF-0.47547377559829873
aF0.048125000000000015
aa(lp5
F-0.169819523855
aF0.14697265625
aF0.8066113826175342
aF0.14697265625
aF-0.349065850399
aF0.07625
aF0.941819639507
aF0.007625
aF-0.349065850399
aF0.1201171875
aF0.6500841619626616
aF0.13620170672588539
aF0.7116780568423626
aF1.0519874178698159
aF-0.042308262169132776
aF0.4976562499999999
aa(lp6
F-0.349065850399
aF0.5075775950317891
aF0.17505110356335774
aF0.7565162765382698
aF-0.349065850399
aF0.335474853515625
aF0.6424214689166039
aF0.367374592251104
aF-0.349065850399
aF0.00375
aF1.15985748555
aF0.000375
aF0.2018277965452282
aF1.2070024349354112
aF0.3505210440093418
aF0.8981640625
aa(lp7
F-0.267072951562
aF1.02125
aF0.102125
aF0.102125
aF-0.349065850399
aF0.8475
aF0.08475
aF0.08475
aF-0.349065850399
aF0.3218842940550001
aF0.889718473024
aF0.01025
aF0.5144268454844751
aF0.41949073641753387
aF-0.41912064451236575
aF0.10447813108563422
aa.