(lp0
(lp1
F-0.34906585039900007
aF0.203125
aF1.1073369391989158
aF0.203125
aF-0.34906585039900007
aF0.0244140625
aF1.3201876919992774
aF0.027664062499999996
aF-0.34906585039900007
aF0.0302734375
aF0.8774335951980503
aF0.167734375
aF0.7690186214346981
aF1.2218123336652345
aF-0.1653949482435293
aF0.3037109375
aa(lp2
F-0.3490658503988659
aF0.630863781946352
aF1.5707963267948966
aF0.01962500000000001
aF-0.3490658503988659
aF0.6675000000000004
aF1.5707963267948966
aF0.06675000000000005
aF-0.3490658503988659
aF0.5912500000000004
aF1.5707963267948966
aF0.05912500000000005
aF0.513695282277435
aF1.2217304763960306
aF-0.4823487755982988
aF0.08125
aa(lp3
F-0.349065850399
aF0.9998709769895644
aF0.6513553813091091
aF0.5250193037226116
aF-0.349065850399
aF0.9376238949050331
aF0.7884645487742159
aF0.34701736224175317
aF-0.349065850399
aF0.7494609379498122
aF0.8784710382565832
aF0.17528906250000004
aF0.471074796283
aF0.85074525973
aF-0.448598775598
aF0.17
aa(lp4
F-0.349065850399
aF0.9721955696723632
aF0.6246568488753319
aF0.0
aF-0.349065850399
aF0.6742020012014689
aF1.0875687734325754
aF0.0
aF-0.349065850399
aF0.5563628012812323
aF0.9911574436280464
aF0.0870501708984375
aF0.306377970796
aF0.849982536862
aF-0.252348775598
aF0.27125
aa(lp5
F-0.34906585039899996
aF0.861796875
aF1.0565149107819822
aF0.341796875
aF-0.34906585039886595
aF1.036575158927146
aF0.8218848573342525
aF0.36114843750000003
aF-0.34906585039899996
aF1.087889114668962
aF0.7654806678491014
aF0.1343984375
aF0.3326901239906024
aF1.2217475848279233
aF-0.35408322831883005
aF0.17954536575164726
aa(lp6
F-0.349065850399
aF0.18125
aF1.57079632679
aF0.018125
aF-0.349065850399
aF0.110625
aF1.4696463293649094
aF0.078125
aF-0.349065850399
aF0.07
aF1.19397396078
aF0.007000000000000001
aF1.0471975512
aF0.595908485427
aF-0.508598775598
aF0.015
aa(lp7
F-0.349065850399
aF0.9223304476637246
aF0.7826373348529974
aF0.0793037109375
aF-0.349065850399
aF1.07557640534
aF0.595816138782
aF0.0130625
aF-0.349065850399
aF0.8546897331111991
aF0.8915197678724764
aF0.05068206787109375
aF0.693887971156
aF1.2217304764000003
aF-0.522973775598
aF0.000625
aa(lp8
F-0.34906585039900007
aF1.5244138093602255
aF1.5699999999999998
aF1.5699999999999998
aF-0.34906585039900007
aF1.0472909616876211
aF0.605883655664714
aF0.1555328369140625
aF-0.34906585039900007
aF0.813934622193734
aF0.7596221885327763
aF0.373046875
aF0.37720841844657504
aF1.1366037418927364
aF-0.18728069695449173
aF0.15023192621154147
aa(lp9
F-0.349065850399
aF0.5715681862218323
aF0.7773185634742652
aF0.19356188964843746
aF-0.349065850399
aF0.39921016397326436
aF1.0604061976939656
aF0.20035743713378906
aF-0.349065850399
aF0.07875
aF1.57079632679
aF0.007875
aF0.605215812961
aF1.02678137558
aF-0.23359877559800002
aF0.29
aa(lp10
F0.108364545442
aF0.31
aF1.53660938147
aF0.031
aF-0.349065850399
aF0.333984375
aF1.5705303660880072
aF0.333984375
aF-0.349065850399
aF0.4895928254497277
aF1.2327986344940225
aF0.1679110412597656
aF0.26870567852161953
aF1.2219555180777344
aF0.38266900090228323
aF0.0
aa(lp11
F-0.349065850399
aF0.43470045835676285
aF0.9897719334225428
aF0.17983081054687497
aF-0.349065850399
aF0.285
aF1.4531103938
aF0.028499999999999998
aF-0.349065850399
aF0.3746391246619464
aF1.1569442444436806
aF0.06253515625
aF0.21503562834
aF1.2217304764
aF0.523598775598
aF0.643450826011
aa(lp12
F-0.07998620231707684
aF0.085
aF1.5707963267948966
aF0.0085
aF-0.3490658503988659
aF0.07625
aF1.5707963267948966
aF0.007625
aF-0.3490658503988659
aF0.017499999999999998
aF1.5707963267948966
aF0.00175
aF0.6170133112689734
aF0.7510333143520933
aF-0.1637774658756554
aF0.036250000000000004
aa(lp13
F0.235597289322
aF0.25125
aF1.57079632679
aF0.025125
aF-0.349065850399
aF0.6424760518243318
aF0.9695898812609692
aF0.13889312744140625
aF-0.349065850399
aF0.40374999999999994
aF1.57079632679
aF0.040375
aF0.14170694984836252
aF1.2219644671035157
aF0.39081528690199996
aF0.9144140624999999
aa(lp14
F-0.349065850399
aF0.44125000000000003
aF1.57079632679
aF0.044125
aF-0.349065850399
aF0.6536811301000931
aF0.9757445107592463
aF0.34434719646196393
aF-0.349065850399
aF0.26
aF1.57079632679
aF0.026000000000000002
aF0.578275161969
aF0.655976269514
aF-0.42484877559799994
aF0.09875
aa(lp15
F-0.349065850399
aF0.8384768878960743
aF0.7532586829466004
aF0.12518310546875
aF-0.349065850399
aF0.8230467462159361
aF0.8138916881409615
aF0.2033843994140625
aF-0.349065850399
aF0.8159039285809031
aF0.7525217183939359
aF0.125514892578125
aF0.450017732148
aF1.2217304764
aF-0.0750825472004
aF0.18875
aa(lp16
F-0.34906585039899996
aF0.5447727627635751
aF0.8431613883732574
aF0.20363998413085938
aF-0.34906585039899996
aF0.39773478920374306
aF0.9919129849601813
aF0.24083471679687496
aF-0.34906585039899996
aF0.3635552978515625
aF0.8236977443187021
aF0.0816802978515625
aF0.4515852887038967
aF1.221926302140625
aF0.2647200613599219
aF0.0
aa(lp17
F-0.349065850399
aF0.73996485070575
aF0.8281778925714081
aF0.4630211721501274
aF-0.349065850399
aF0.64625
aF0.7793413521843028
aF0.683171875
aF-0.349065850399
aF0.10125
aF1.57079632679
aF0.082625
aF1.0471975512
aF0.268099521372
aF-0.447348775598
aF0.07625
aa(lp18
F-0.34906585039899996
aF0.6665311783825516
aF0.5728898677773
aF0.22799842834472656
aF-0.34906585039899996
aF0.62837167263031
aF0.8366173337515741
aF0.030498504638671875
aF-0.34906585039899996
aF0.8684375
aF1.570354614273672
aF0.5860624999999999
aF0.8299103393980001
aF1.2217304763999999
aF-0.419848775598
aF0.10375
aa(lp19
F-0.30759956264
aF1.135
aF0.1135
aF0.37175
aF-0.349065850399
aF1.081003503811709
aF0.226515625
aF0.5824648560795187
aF-0.349065850399
aF1.1164564198903681
aF0.2942405299941946
aF0.5343492202392812
aF0.44671171001
aF1.2217304764
aF-0.42984877559800005
aF0.994367378233
aa(lp20
F-0.349065850399
aF0.151930831217
aF1.09614674273
aF0.009
aF-0.349065850399
aF0.54375
aF0.150375
aF0.150375
aF-0.349065850399
aF0.32175445556640625
aF0.3426294555664062
aF0.34349468306375286
aF1.0471975512
aF0.877733707718
aF-0.402348775598
aF0.12125
aa(lp21
F-0.349065850399
aF0.5248522195135206
aF0.8510213350689371
aF0.18787577260148058
aF-0.349065850399
aF0.32417418699106837
aF1.1344429117234482
aF0.24386718749999997
aF-0.349065850399
aF0.05249999999999999
aF1.5014065700199999
aF0.00525
aF0.8974530301869998
aF0.852354299313
aF-0.501098775598
aF0.0225
aa(lp22
F-0.349065850399
aF0.16125
aF1.57079632679
aF0.390735279894
aF-0.349065850399
aF0.540910648894777
aF1.1327054794098137
aF0.13628158951812397
aF-0.349065850399
aF0.955586439808725
aF1.1781458672190552
aF0.784522624874552
aF0.8287343636790001
aF1.2217304764
aF-0.437348775598
aF0.08625
aa(lp23
F0.0917665087542
aF1.1192741164728695
aF0.32049560546875
aF0.36824560546874996
aF-0.0919763326105
aF1.1568218994140627
aF0.3677148437500001
aF0.26708984375
aF-0.0723806979126
aF1.1183804893493652
aF0.3570291748046875
aF0.2611541748046875
aF0.3862135013879999
aF1.2217304764000003
aF-0.3923487755980001
aF0.7853096891990001
aa(lp24
F-0.34906585039899996
aF1.140625
aF0.11406249999999998
aF0.11406249999999998
aF-0.34906585039899996
aF1.109375
aF0.227568713737
aF0.1109375
aF-0.34906585039899996
aF0.9041767229543225
aF0.4849528484882084
aF0.135598876953125
aF0.29594303716
aF1.2217304763999999
aF0.298541715229
aF0.04
aa(lp25
F-0.349065850399
aF1.1487500000000002
aF0.114875
aF0.238875
aF-0.349065850399
aF0.405
aF1.57079632679
aF0.0405
aF-0.349065850399
aF0.31439886338959244
aF1.4698550026861055
aF0.0888671875
aF-0.120947551197
aF0.92625
aF0.402651224402
aF0.92625
aa(lp26
F-0.30312956725983176
aF1.138679386058131
aF0.33176539067618593
aF0.08833996582031249
aF-0.349065850399
aF0.9028347705931923
aF0.7580767148804337
aF0.13736724853515625
aF-0.349065850399
aF0.7050439592553166
aF0.9000510881119338
aF0.20746160888671877
aF0.0717524774205
aF1.2217304764
aF0.523598775598
aF0.13210202915
aa(lp27
F-0.349065850399
aF0.118125
aF1.57079632679
aF0.110230094994
aF-0.349065850399
aF0.2552734375
aF1.4401357848336678
aF0.0771484375
aF-0.349065850399
aF0.08000000000000002
aF1.57079632679
aF0.41612453202800004
aF0.944990891421
aF1.2217304764
aF-0.411723775598
aF0.111875
aa(lp28
F-0.34906585039899996
aF0.7127174939985514
aF0.8559798004028107
aF0.21076882934570312
aF-0.3490658503988659
aF0.9373590507556684
aF0.3125
aF0.4235
aF-0.34906585039899996
aF1.01015587702
aF0.21284201008799997
aF0.074
aF0.173639826879875
aF1.2219818788396835
aF0.23513872438761255
aF0.755859375
aa(lp29
F-0.05694375393015488
aF1.0103127168517596
aF0.8094869758846575
aF0.17066092609452677
aF-0.349065850399
aF0.55625
aF1.57079632679
aF0.055625
aF-0.349065850399
aF0.291015625
aF1.5705645832549755
aF0.291015625
aF-0.0740725511966
aF1.2217304764
aF0.449526224402
aF0.973125
aa(lp30
F-0.349065850399
aF1.3311406107561417
aF0.328125
aF0.3319375
aF-0.349065850399
aF1.500625
aF0.1700625
aF0.1700625
aF-0.0673113219393
aF1.37905774379
aF0.413928039158
aF0.0400625
aF0.277085055167
aF1.2217304764
aF-0.495473775598
aF0.028125000000000004
aa(lp31
F-0.349065850399
aF1.434966687
aF0.0295
aF0.0295
aF-0.349065850399
aF1.375
aF0.1375
aF0.25239960823
aF-0.349065850399
aF1.0676861572265626
aF0.47607421875
aF0.5371992187500001
aF0.37502320602
aF1.2217304764
aF-0.347348775598
aF0.17625
aa(lp32
F-0.34906585039899996
aF0.7778263822170113
aF0.9986938038276623
aF0.16467840576171877
aF-0.34906585039899996
aF0.9077364308486591
aF0.7876176849382275
aF0.28864390478089885
aF-0.247711324071
aF0.9453573230326455
aF0.7147962167663602
aF0.16288525390625
aF0.658952141306
aF1.2217304764
aF-0.479223775598
aF0.044375
aa(lp33
F-0.34906585039899996
aF1.1297263394240278
aF0.26087771606445315
aF0.3666171854544267
aF-0.34906585039899996
aF1.234375
aF0.1234375
aF0.2864375
aF-0.34906585039899996
aF0.9753878023803596
aF0.5195508797540844
aF0.15997122284234985
aF0.4400154829499999
aF1.2217304764
aF-0.219223775598
aF0.304375
aa(lp34
F-0.349065850399
aF0.7030328810211725
aF1.3525974331964712
aF0.0
aF-0.349065850399
aF0.6975161743164062
aF1.03818703065081
aF0.24639117431640625
aF-0.349065850399
aF0.66375
aF0.8528424898889999
aF0.066375
aF0.412409114168
aF0.714655056263
aF-0.344848775598
aF0.236980865731
aa.