(lp0
(lp1
F-0.34906585039900007
aF0.4670764496210692
aF0.6005141438421877
aF0.01606689453125
aF-0.34906585039900007
aF0.58125
aF0.866286719973
aF0.058125
aF-0.34906585039900007
aF0.07875
aF1.57079632679
aF0.007875
aF1.0471975512
aF0.05625
aF-0.467348775598
aF0.05625
aa(lp2
F-0.349065850399
aF0.60541392629146
aF0.0
aF0.12886180383443957
aF-0.349065850399
aF0.740014545549
aF0.05225
aF0.05225
aF-0.349065850399
aF0.446519193827
aF0.00775
aF1.0408231158
aF0.27847578500256975
aF1.062215754491808
aF-0.028267498006851133
aF1.067849621833
aa(lp3
F-0.34906585039899996
aF0.5175238300623828
aF0.3724765751532426
aF0.08363740815612863
aF-0.34906585039899996
aF0.02
aF1.28443902855
aF0.0438323040691
aF-0.34906585039899996
aF0.16015625
aF0.6868728537474875
aF0.4637561375591579
aF1.0471975512
aF0.315425396279
aF-0.499848775598
aF0.02375
aa(lp4
F-0.3490658503988659
aF0.7878540157884615
aF0.005125
aF0.005125
aF-0.3490658503988659
aF0.9462500000000007
aF0.09462500000000007
aF0.1436250000000001
aF-0.3490658503988659
aF0.11124999999999999
aF1.5707963267948966
aF0.011125000000000003
aF1.0471975511965976
aF0.051250000000000004
aF-0.47234877559829874
aF0.051250000000000004
aa.