(lp0
(lp1
F-0.349065850399
aF1.54118643364
aF0.493802913585
aF1.57079632679
aF-0.349065850399
aF1.45815728693
aF0.9089653548175685
aF0.34765625
aF-0.349065850399
aF0.71375
aF1.57079632679
aF0.071375
aF-1.0109475512
aF0.605295901
aF0.24139397954199998
aF0.06625
aa(lp2
F0.349065850399
aF1.54600214208
aF0.031875
aF0.031875
aF-0.3490639026111499
aF1.1874325855262577
aF0.265953125
aF0.126953125
aF-0.349065850399
aF1.25948466211
aF0.0365
aF0.0365
aF-0.353074729777
aF1.09054468856
aF0.523598775598
aF0.00875
aa(lp3
F-0.3490658503988659
aF1.5509519753806367
aF0.4977500000000004
aF1.5707963267948966
aF-0.3490658503988659
aF0.7775000000000005
aF1.5707963267948966
aF0.07775000000000006
aF-0.3490658503988659
aF0.9675000000000007
aF0.09675000000000007
aF0.682609960844415
aF-0.8796975511965974
aF1.2217304763960306
aF0.5235987755982988
aF1.5707963267948966
aa(lp4
F0.3490658503988659
aF1.546301197031032
aF0.026062500000000016
aF0.6980237417190097
aF-0.08008794977418902
aF0.7643750000000005
aF0.07643750000000006
aF0.2173984857793249
aF-0.3490658503988659
aF0.4168750000000002
aF0.04168750000000003
aF0.6542292586978805
aF0.11390072570259571
aF1.2217304763960306
aF-0.4829737755982987
aF0.040625
aa(lp5
F-0.3490658503988659
aF1.5458962607668894
aF0.33499150289366264
aF1.5707963267948966
aF-0.3490658503988659
aF0.9650000000000006
aF0.9429654215256342
aF0.43395565707856026
aF-0.3490658503988659
aF0.24500000000000005
aF1.5707963267948966
aF0.49863369807910274
aF-0.9321975511965975
aF0.11499999999999999
aF0.5235987755982988
aF0.11499999999999999
aa.