(lp0
(lp1
F0.236821423942
aF0.355479857896
aF1.57079632679
aF0.007375
aF-0.349065850399
aF0.81679931640625
aF0.458111229137
aF0.193359375
aF-0.349065850399
aF0.699154052734375
aF0.7262035915629976
aF0.132904052734375
aF0.319748186846
aF1.2217304764
aF-0.522348775598
aF0.00125
aa(lp2
F-0.349065850399
aF1.54545199961
aF1.57
aF1.57
aF-0.349065850399
aF1.15265193149
aF0.01125
aF1.06504408277
aF-0.349065850399
aF1.0379275723327774
aF0.30505553369640004
aF0.25237276941438846
aF-0.5174123949465976
aF1.2218732660006726
aF0.14425506791949513
aF0.52978515625
aa(lp3
F-0.349065850399
aF0.21
aF0.2966875
aF1.57079632679
aF-0.349065850399
aF0.188383633751
aF0.4486875
aF1.57079632679
aF-0.349065850399
aF0.2775
aF0.3576875
aF1.48752910886
aF-0.037158488697
aF1.2217960148505114
aF0.311538158116748
aF0.9621661376953126
aa(lp4
F-0.3490658503988659
aF0.5994312015325369
aF0.026375000000000016
aF0.4973750000000004
aF-0.3490658503988659
aF0.3937500000000002
aF0.03937500000000003
aF0.4973750000000004
aF-0.3490658503988659
aF0.07125000000000001
aF0.21137500000000017
aF1.5707963267948966
aF0.40306372674181695
aF0.7936788459290163
aF-0.4523487755982987
aF0.07125000000000001
aa(lp5
F-0.349065850399
aF0.59875
aF0.591382931093
aF0.059875
aF-0.349065850399
aF0.6224609375
aF0.4599609375
aF0.47621093750000004
aF-0.349065850399
aF0.865
aF0.183516578897
aF0.0865
aF-0.24433781238199997
aF1.2217304764
aF0.523598775598
aF0.475632786845
aa(lp6
F-0.349065850399
aF0.6003138806146257
aF0.8101236355742689
aF0.2967581245662485
aF-0.349065850399
aF0.5518113683911896
aF0.9680263928303352
aF0.27643622996745587
aF-0.349065850399
aF0.33839457957627295
aF1.3269432769032412
aF0.048633575439453125
aF-0.17669496675679006
aF1.2218189179411871
aF0.2753455324042429
aF0.3281402587890625
aa(lp7
F-0.3490658503988659
aF0.43509152748249247
aF0.023000000000000013
aF0.45750000000000035
aF-0.3358427176580719
aF0.11841546866439254
aF0.00875
aF1.5707963267948966
aF-0.3490658503988659
aF0.28500000000000014
aF1.5707963267948966
aF1.5707963267948966
aF-0.322197551196597
aF0.7250000000000005
aF0.5235987755982988
aF0.7250000000000005
aa(lp8
F-0.349065850399
aF1.54531481263
aF1.57
aF1.57
aF-0.349065850399
aF0.8700000000000001
aF0.398743619921
aF0.187
aF-0.349065850399
aF0.589067889957
aF0.33503125
aF0.33203125
aF-0.07149191329051219
aF1.2218397071534985
aF0.07789633365314258
aF0.4052734375
aa(lp9
F-0.349065850399
aF0.80875
aF0.080875
aF0.080875
aF-0.349065850399
aF0.924456355012
aF0.001625
aF0.001625
aF-0.349065850399
aF0.8327713775634765
aF0.28537228553263017
aF0.03155517578125
aF0.4071079997
aF1.19711889516
aF-0.331120468704
aF0.0748777424614
aa(lp10
F-0.349065850399
aF0.6575
aF1.34136444596
aF0.33962078672599993
aF-0.349065850399
aF0.9443625117775939
aF0.7227680726452803
aF0.0768280029296875
aF-0.23760013147
aF1.19125
aF0.11912500000000001
aF0.11912500000000001
aF-0.693447551197
aF1.2217304764
aF0.523598775598
aF0.35375
aa.