(lp0
(lp1
F-0.349065850399
aF0.35809102953563676
aF1.4386866052179017
aF0.349609375
aF-0.349065850399
aF0.2681159086686318
aF1.5706034663992576
aF0.3378125
aF-0.349065850399
aF0.138671875
aF1.570685898660918
aF0.138671875
aF0.160384116687
aF1.2217304764
aF-0.23609877559799997
aF0.8744161539370001
aa(lp2
F-0.349065850399
aF1.291890748557544
aF0.35593535506969065
aF0.75
aF-0.349065850399
aF1.3470055757720896
aF0.4931337839275498
aF0.2455703125
aF-0.349065850399
aF1.22223388671875
aF0.6381396482863627
aF0.1025390625
aF-0.767197551197
aF1.2217304764
aF0.448901224402
aF0.9725
aa(lp3
F-0.349065850399
aF0.0125
aF1.07324963329
aF0.00125
aF-0.349065850399
aF0.376875
aF0.0376875
aF0.0756875
aF-0.349065850399
aF0.0322265625
aF0.3159140625
aF0.3159140625
aF0.1610710615515587
aF0.8634504230407161
aF0.5020604244374922
aF0.014376716808573331
aa(lp4
F-0.349065850399
aF0.26035308837890625
aF1.0429270822326102
aF0.26035308837890625
aF-0.349065850399
aF0.027499999999999997
aF1.57079632679
aF0.00275
aF-0.349065850399
aF0.1928354391336854
aF0.9834371164575839
aF0.6635325927734375
aF0.3031897783907226
aF1.2218291788877185
aF0.07790834437197071
aF0.8974609375
aa(lp5
F-0.349065850399
aF0.64125
aF1.57079632679
aF0.064125
aF-0.349065850399
aF0.769622187608
aF1.57079632679
aF0.019625
aF-0.349065850399
aF1.0129536509160386
aF0.8862575712119121
aF0.1506800071441201
aF-0.4764544704702304
aF1.2034134915106545
aF0.523598775598
aF0.02625
aa(lp6
F-0.349065850399
aF0.2626953125
aF0.8913509006988884
aF0.2904453125
aF-0.349065850399
aF0.246640625
aF0.8295496877898392
aF0.181640625
aF-0.349065850399
aF0.15669405460357666
aF0.5472831656585612
aF0.6510703125
aF0.251191023772
aF1.2217304764
aF-0.296098775598
aF1.57079632679
aa(lp7
F0.20755124654328513
aF1.2491193063374373
aF0.6057973541829101
aF0.7753488697648424
aF-0.3490658503988659
aF1.498758666348297
aF0.3972500000000003
aF0.3972500000000003
aF-0.3490658503988659
aF1.5707963267948966
aF0.12725000000000009
aF0.42125000000000035
aF-0.8846975511965975
aF1.2217304763960306
aF0.5235987755982988
aF0.4635220479121735
aa(lp8
F0.0355179246484
aF0.725327113385
aF1.57079632679
aF0.039375
aF-0.349065850399
aF0.7947685381926614
aF1.019471606148961
aF0.15657474169225072
aF-0.349065850399
aF0.40125
aF1.57079632679
aF0.15699046849
aF0.171054748911
aF1.2217304764
aF-0.452348775598
aF0.815837211978
aa(lp9
F-0.3490658503988659
aF0.3350000000000002
aF0.03350000000000002
aF1.5707963267948966
aF-0.3490658503988659
aF0.31125000000000014
aF0.03112500000000002
aF1.5707963267948966
aF-0.3490658503988659
aF0.05
aF0.2695000000000002
aF1.5707963267948966
aF-0.43378036844180834
aF0.11374999999999999
aF-0.4098487755982988
aF0.11374999999999999
aa(lp10
F-0.349065850399
aF1.31625
aF0.131625
aF0.131625
aF-0.349065850399
aF1.2442408961616134
aF0.2445164300625653
aF0.255484375
aF-0.349065850399
aF1.1949927919108692
aF0.1479609375
aF0.39036235627123383
aF-0.311387123375
aF1.2217304763999999
aF0.523598775598
aF0.08375
aa(lp11
F-0.33901808557708213
aF1.2715200849493522
aF0.26856102212071487
aF0.267826980259366
aF-0.349065850399
aF0.9436295305180069
aF0.47116999500309653
aF0.07330672932104054
aF-0.349065850399
aF0.7172573330279755
aF0.6782324308711143
aF0.0
aF-0.28711942619700004
aF1.2217941724070314
aF0.523693596208629
aF0.236328125
aa(lp12
F0.271958872958
aF0.9340350431437682
aF0.0
aF0.2469808763118908
aF-0.34906585039899996
aF0.531727294921875
aF0.6538926585146438
aF0.16502299137837007
aF-0.34906585039899996
aF0.20619943570668414
aF1.1838254339680467
aF0.15234375
aF0.04187336996053315
aF1.221956307697656
aF0.371195901612043
aF0.10833430716655412
aa(lp13
F-0.349065850399
aF0.9746673449165848
aF0.44585323196364945
aF0.749539170315
aF-0.349065850399
aF1.3293385829599997
aF0.013875000000000002
aF0.347554400097
aF-0.349065850399
aF0.9744603099206881
aF0.701264415730664
aF0.1416015625
aF-0.400947551197
aF1.2217304764
aF0.523598775598
aF0.64625
aa.