(lp0
(lp1
F-0.3490658503988659
aF0.8237500000000005
aF0.3824306864240872
aF1.0588050290700108
aF-0.3490658503988659
aF0.7937500000000005
aF0.6371381554906854
aF0.07937500000000006
aF-0.3490658503988659
aF0.10874999999999999
aF1.5707963267948966
aF0.010875000000000003
aF0.7224538979497265
aF1.2217304763960306
aF-0.42984877559829876
aF0.09375
aa(lp2
F-0.349065850399
aF0.355625
aF1.57079632679
aF0.2805625
aF-0.349065850399
aF0.40020642242832594
aF1.570489927617954
aF0.454106836795503
aF-0.349065850399
aF0.3828125
aF1.3329348008356225
aF0.8085207077892145
aF0.644341355121
aF1.2217304764
aF-0.292973775598
aF1.57079632679
aa(lp3
F-0.349065850399
aF1.4271289795028723
aF0.2958911736550265
aF0.0
aF-0.349065850399
aF1.38179574171
aF0.0328125
aF0.673381671675
aF-0.349065850399
aF1.20251495775
aF0.61022985042
aF0.0408125
aF0.195161538159
aF1.2217304764
aF-0.502973775598
aF0.720180038922
aa(lp4
F-0.3490658503988659
aF1.5412500000000011
aF1.5707963267948966
aF0.49812500000000043
aF-0.3490658503988659
aF0.2612500000000001
aF1.5707963267948966
aF0.026125000000000016
aF-0.3490658503988659
aF0.23875000000000007
aF0.7493011870425935
aF1.5707963267948966
aF1.0471975511965976
aF0.07794025455389908
aF-0.5235987755982988
aF0.0
aa(lp5
F0.217169732959
aF0.05875
aF1.57079632679
aF0.005875
aF-0.34906585039900007
aF0.543458149582404
aF0.8309810921184169
aF0.29968906909696535
aF-0.34906585039900007
aF0.5591804397079824
aF0.7598753198469201
aF0.2662025816628839
aF0.33849465013529234
aF1.22196209824375
aF0.39355642218153125
aF0.4882540427130726
aa(lp6
F-0.34906585039899996
aF0.1075
aF1.57079632679
aF0.01075
aF-0.34906585039899996
aF0.08625
aF1.57079632679
aF0.008625
aF-0.34906585039899996
aF0.05875
aF0.76828125
aF1.5705816918348827
aF0.921404145333
aF0.613447279973
aF-0.509848775598
aF0.01375
aa(lp7
F-0.0201801313432
aF0.22875
aF1.57079632679
aF0.022875
aF-0.34906585039900007
aF0.761226722205864
aF0.6210579076584071
aF0.4727041015625
aF-0.3443820559423665
aF0.8940065946451352
aF0.49636187256312214
aF0.18985986328124999
aF0.709187311199
aF1.2217304764
aF-0.464848775598
aF0.05875
aa(lp8
F-0.07192758935485011
aF0.7381789008868194
aF0.604492260346795
aF0.19056208910492134
aF-0.349065850399
aF0.1375
aF1.57079632679
aF0.013749999999999998
aF-0.349065850399
aF0.0859375
aF1.4086378143962515
aF0.0859375
aF0.659107204704
aF0.797926706998
aF-0.407348775598
aF0.11625
aa(lp9
F-0.349065850399
aF1.5143163600995146
aF0.9375
aF0.9375
aF-0.349065850399
aF0.34
aF1.53087875133
aF0.034
aF-0.349065850399
aF0.1425
aF1.57079632679
aF0.01425
aF0.780094106295
aF1.2217304764
aF-0.516098775598
aF0.0075
aa(lp10
F0.19262795516499998
aF0.16125
aF1.57079632679
aF0.016125
aF-0.34906585039900007
aF0.19666867961615508
aF1.4171817002231861
aF0.24689410141296797
aF-0.34906585039900007
aF0.0925
aF1.57079632679
aF0.00925
aF0.17358185361743317
aF1.201549709232461
aF0.40217143972133984
aF0.9344531250000001
aa(lp11
F0.134848806892
aF0.7385478075759999
aF1.29237071575
aF0.01775
aF-0.34906585039900007
aF0.9458251323810001
aF0.816110197717
aF0.051125
aF-0.34906585039900007
aF0.8574076252794801
aF0.8611183508804223
aF0.1087646484375
aF-0.0707446452728413
aF1.221983154775
aF0.5239749234748751
aF0.0
aa(lp12
F-0.349065850399
aF0.7993744113880492
aF0.6873483956448057
aF0.0372349533819043
aF-0.349065850399
aF0.8136363368718342
aF0.8545799795970894
aF0.16165403205868945
aF-0.349065850399
aF0.8049984157659968
aF0.7968651614268436
aF0.18783850827818038
aF0.443227561768
aF1.2217304764
aF-0.462348775598
aF0.620533715531
aa(lp13
F-0.3490658503988659
aF0.27375000000000005
aF0.6293390584636022
aF0.4973750000000004
aF-0.3490658503988659
aF0.25500000000000006
aF0.7725428659085591
aF0.7495908167130354
aF-0.3490658503988659
aF0.24750000000000008
aF0.2963750000000002
aF1.5707963267948966
aF1.0471975511965976
aF1.2217304763960306
aF-0.2860987755982986
aF0.23750000000000007
aa(lp14
F-0.349065850399
aF0.3950740423777519
aF0.9008938635323395
aF0.0876875
aF-0.349065850399
aF0.07216714985129
aF1.57
aF0.0
aF-0.349065850399
aF0.006875000000000001
aF1.57079632679
aF0.0006875
aF0.779438760907
aF0.692159274635
aF-0.520473775598
aF0.0447802485989
aa(lp15
F-0.349065850399
aF0.9420002436526682
aF0.26138275146484374
aF0.33061069225258244
aF-0.349065850399
aF1.19828619102
aF0.0005
aF0.0005
aF-0.349065850399
aF1.13
aF0.11300000000000002
aF0.11300000000000002
aF0.757772914439
aF1.2217304764
aF-0.523598775598
aF0.0
aa(lp16
F0.297417993361
aF0.3524999999999999
aF1.57079632679
aF0.03525
aF-0.349065850399
aF0.3776523785207113
aF1.5707963267948966
aF0.003273110216274952
aF-0.349065850399
aF0.5234583328196633
aF1.0348233755267406
aF0.3184237898077198
aF0.0728842099438
aF1.2217304764
aF0.523598775598
aF0.11307017362899999
aa(lp17
F-0.34906585039900007
aF0.0
aF1.57079632679
aF0.0
aF-0.34906585039900007
aF0.171875
aF1.480519225730581
aF0.18362499999999998
aF-0.34906585039900007
aF0.1725
aF0.7404375000000001
aF1.5706034663955468
aF1.0471975512
aF1.2217304764
aF-0.341098775598
aF0.1825
aa(lp18
F-0.3257305426969616
aF0.7400652861994212
aF1.14905307872291
aF0.0
aF-0.0931499160461
aF0.8656435322478822
aF0.8073283163884744
aF0.3410578092557013
aF-0.349065850399
aF0.686929240711
aF1.0457843899
aF0.223229314244
aF0.414795623559
aF1.01066480168
aF-0.479848775598
aF0.04375
aa(lp19
F-0.3490658503988659
aF1.5504299715233874
aF1.5707963267948966
aF0.4980625000000004
aF-0.3490658503988659
aF1.0706250000000006
aF0.10706250000000009
aF0.10706250000000009
aF-0.3490658503988659
aF0.136875
aF1.5707963267948966
aF0.013687500000000005
aF0.7521567142388077
aF1.2217304763960306
aF-0.48172377559829876
aF0.041875
aa(lp20
F0.22781356165900002
aF1.3085187257887951
aF0.29804964072222173
aF0.0
aF-0.349065850399
aF0.999040705308289
aF0.7068665414628308
aF0.6822748891364339
aF-0.273396427274
aF1.0325564471546902
aF0.8191964002498766
aF0.1898378566067187
aF-0.46840757166
aF0.926920659032
aF0.523598775598
aF0.07875
aa(lp21
F-0.3490658503988659
aF0.47685685934105815
aF0.8489816693480283
aF0.03875000000000003
aF-0.3490658503988659
aF0.017499999999999998
aF1.5707963267948966
aF0.00175
aF-0.3490658503988659
aF0.017499999999999998
aF0.4977500000000004
aF1.5707963267948966
aF0.2127180886932397
aF0.5337897269464582
aF0.10404063976731107
aF0.40183778006519627
aa(lp22
F0.15564227308941816
aF0.35500000000000015
aF1.5707963267948966
aF0.035500000000000025
aF-0.3490658503988659
aF0.46000000000000024
aF0.4990000000000004
aF0.4990000000000004
aF-0.3490658503988659
aF0.20000000000000004
aF0.4990000000000004
aF1.5707963267948966
aF0.5440716968210496
aF0.6796862658892567
aF-0.1760987755982985
aF0.34750000000000014
aa(lp23
F-0.3490658503988659
aF1.5490868159767723
aF1.5707963267948966
aF0.4978750000000004
aF0.10781243610855927
aF0.4687500000000003
aF1.5707963267948966
aF0.046875000000000035
aF-0.3490658503988659
aF0.0775
aF1.5707963267948966
aF0.3440411269110603
aF0.3610317240782257
aF0.942794883905825
aF-0.3848487755982987
aF0.705111145610287
aa(lp24
F0.255147369357
aF0.21625
aF1.57079632679
aF0.021625
aF-0.349065850399
aF0.4292975951796296
aF1.0889027281466759
aF0.10515690774392539
aF-0.349065850399
aF0.46011838650147907
aF0.9320721502557772
aF0.48349219952501876
aF0.211578474917
aF1.2217304764
aF0.523598775598
aF0.004999999999999999
aa(lp25
F-0.3490658503988659
aF0.35750000000000015
aF0.6984555878068377
aF1.0212387011536612
aF-0.3490658503988659
aF0.36750000000000016
aF0.5955156415558129
aF0.4957500000000004
aF-0.3490658503988659
aF0.2800000000000001
aF0.46725666492841805
aF1.5707963267948966
aF1.0471975511965976
aF0.9636371550514606
aF-0.4935987755982988
aF0.03
aa(lp26
F0.1985606954572767
aF0.3612500000000002
aF1.5707963267948966
aF0.036125000000000025
aF-0.3490658503988659
aF0.32625000000000015
aF1.2808701453493478
aF0.03262500000000002
aF-0.3490658503988659
aF0.39375000000000016
aF0.35516837262379153
aF1.5707963267948966
aF0.2415610703202377
aF1.2217304763960306
aF0.5235987755982988
aF0.07375000000000001
aa(lp27
F0.06283914075665953
aF0.8264678974322008
aF0.6825636003642179
aF0.27250795705196484
aF-0.34906585039899996
aF0.7474520346143327
aF0.8034582805546362
aF0.0695817248393944
aF-0.34906585039899996
aF0.7238803100585938
aF0.5918375480315938
aF0.43617962615696815
aF0.17179413823599998
aF1.2217304764
aF0.337171964918
aF0.17375000000000002
aa(lp28
F-0.143794032733
aF0.1375
aF1.57079632679
aF0.8771267236139999
aF-0.349065850399
aF0.3221435546875
aF1.501216015079037
aF0.9082426452636719
aF-0.349065850399
aF0.2208251953125
aF1.570620477774881
aF0.7442626953125
aF0.0953024488034
aF1.1425
aF0.523598775598
aF1.43530556841
aa(lp29
F-0.349065850399
aF0.6724467346243771
aF0.907773147772631
aF0.10411592635516786
aF-0.349065850399
aF0.6128684530251043
aF1.118303757416699
aF0.03032021078380609
aF-0.349065850399
aF0.5499307429085847
aF1.211730675586577
aF0.009625
aF0.67050419354
aF1.2217304764
aF-0.484848775598
aF0.03875
aa(lp30
F-0.349065850399
aF0.3925
aF1.23728614368
aF0.03925
aF-0.349065850399
aF0.30482737910614754
aF1.3777812065765858
aF0.09624263728963633
aF-0.349065850399
aF0.1
aF1.57079632679
aF0.009999999999999998
aF-0.07719319947857328
aF0.7603310830908634
aF0.40827289978226955
aF0.0
aa(lp31
F-0.34906585039900007
aF0.8725060983121016
aF1.570357724927395
aF0.55078125
aF-0.34906585039900007
aF1.0960859656333923
aF1.5700434781614887
aF0.2643585205078125
aF-0.34906585039900007
aF0.828125
aF1.570136868667873
aF0.828125
aF-0.08626005119699998
aF1.221787329034375
aF0.524
aF1.57
aa(lp32
F-0.349065850399
aF0.6677316606185566
aF1.1702658661213403
aF0.0
aF-0.349065850399
aF0.5283396489341483
aF1.2550501030641268
aF0.35879920572790547
aF-0.349065850399
aF0.26125
aF1.57079632679
aF0.026125
aF0.313442409753
aF0.685659232532
aF-0.436098775598
aF0.0875
aa(lp33
F0.211090522439
aF0.351875
aF1.57079632679
aF0.0351875
aF-0.349065850399
aF0.8043493105081572
aF0.8922908659488584
aF0.1375732421875
aF-0.349065850399
aF1.198125
aF0.11981249999999999
aF0.11981249999999999
aF0.08624286580443008
aF1.2219657831367188
aF0.4048895597385352
aF0.0
aa(lp34
F0.270822911803
aF0.6594053898737078
aF1.1544489102303794
aF0.041
aF-0.349065850399
aF0.8213613166070557
aF0.8819772975531477
aF0.202666786183336
aF-0.3490658503988659
aF0.835379899023986
aF0.766181698104166
aF0.113125
aF0.374635160949
aF1.2217304764
aF-0.137377688631
aF0.019999999999999997
aa.