(lp0
(lp1
F-0.349065850399
aF0.6917626953125
aF0.6192626953125
aF0.6317938566207886
aF-0.349065850399
aF1.02
aF0.10200000000000001
aF0.7333750000000001
aF-0.349065850399
aF0.9517578124999999
aF0.31062499999999993
aF0.2388625746354549
aF0.261959216871
aF0.8799698916299998
aF-0.488598775598
aF0.035
aa(lp2
F0.150607416888
aF0.43390625
aF0.7437533623778458
aF0.38440625
aF-0.34906585039899996
aF0.544375
aF0.2224375
aF0.785140661414
aF-0.34906585039899996
aF0.16098337169595034
aF0.8811050415039062
aF0.404296875
aF0.745615871429
aF1.2217304763999999
aF-0.311626145997
aF0.12437500000000001
aa(lp3
F-0.349065850399
aF0.111328125
aF1.040491192817924
aF0.447953125
aF-0.349065850399
aF0.03625
aF1.57079632679
aF0.003625
aF-0.349065850399
aF0.06375
aF1.57079632679
aF0.006375
aF0.515893823343
aF0.997580112228
aF-0.427348775598
aF0.09625
aa(lp4
F0.287339331272
aF0.5370371084575314
aF1.2026625474186923
aF0.1932220458984375
aF-0.349065850399
aF0.3466796875
aF1.1982609818246202
aF0.5555913745993504
aF-0.349065850399
aF0.13375
aF1.57079632679
aF0.013375
aF-0.048629632004986656
aF1.222
aF0.524
aF0.2290097895348231
aa(lp5
F-0.34906585039899996
aF0.4918859344788292
aF1.3954828161201687
aF0.1083984375
aF-0.34906585039899996
aF0.460497832623
aF1.57079632679
aF0.04325
aF-0.34906585039899996
aF0.177932159466
aF1.57079632679
aF0.651961027155
aF-0.0898732970496
aF0.783976432052
aF-0.489848775598
aF0.03375
aa(lp6
F-0.349065850399
aF0.0775
aF1.57079632679
aF0.00775
aF-0.349065850399
aF0.14
aF1.57079632679
aF0.1135
aF-0.349065850399
aF0.12234375
aF1.1830979728987114
aF0.8311875609260637
aF-0.662197551197
aF0.385
aF-0.138598775598
aF1.00774211222
aa(lp7
F-0.304512622072
aF0.4981640625
aF0.3056640625
aF0.3056640625
aF-0.349065850399
aF0.392578125
aF0.392578125
aF0.392578125
aF-0.349065850399
aF0.09521484375
aF0.8861835702711438
aF0.09521484375
aF0.5269989824436938
aF1.1919326171875
aF0.00016152443518857584
aF0.2534898882042864
aa(lp8
F0.285160246245
aF0.20687500000000003
aF1.37684599759
aF0.324794336958
aF-0.34906585039899996
aF0.9011749267578125
aF0.2171328125
aF0.7793053571986548
aF-0.34906585039899996
aF0.978051990669163
aF0.271484375
aF0.30392187499999995
aF0.382289612572
aF1.2217304764
aF-0.396723775598
aF0.38271267521499996
aa(lp9
F-0.2224688407355646
aF0.11844396675126859
aF1.5707963267948966
aF0.0053750000000000004
aF-0.3490658503988659
aF0.16
aF1.5707963267948966
aF0.016000000000000007
aF-0.3490658503988659
aF0.2712500000000001
aF1.298891664717301
aF0.027125000000000017
aF0.34700998399118405
aF0.9413895470206581
aF-0.3773487755982987
aF0.14625
aa(lp10
F-0.0207255021011
aF0.4625
aF0.9533281250000001
aF0.6664525410424202
aF-0.278653708713
aF0.2725
aF1.57079632679
aF0.027250000000000003
aF-0.22554635631000003
aF0.18
aF1.12325
aF1.12325
aF0.271868438659
aF0.929200744021
aF-0.358598775598
aF0.165
aa(lp11
F0.195156017021
aF0.776174751208
aF0.5625
aF0.5625020723485255
aF-0.349065850399
aF1.20150283313
aF0.08425
aF0.21125
aF-0.349065850399
aF1.208255223578301
aF0.099609375
aF0.108109375
aF0.224309728065
aF1.14729891049
aF-0.418598775598
aF0.105
aa(lp12
F-0.3490658503988659
aF0.7112500000000005
aF0.07112500000000005
aF1.5707963267948966
aF-0.3490658503988659
aF0.3887500000000002
aF1.2148894045020775
aF0.03887500000000003
aF-0.3490658503988659
aF0.042499999999999996
aF1.5707963267948966
aF0.00425
aF0.4493625089820623
aF1.2217304763960306
aF-0.22870095572188445
aF0.11874999999999997
aa(lp13
F-0.349065850399
aF0.3347665630037877
aF1.1707801039218904
aF0.4658203125
aF-0.349065850399
aF0.255
aF1.57079632679
aF0.025500000000000002
aF-0.349065850399
aF0.3661970556919312
aF1.1348857376879284
aF0.43146890402045557
aF0.02723463878497223
aF0.9404251842644413
aF-0.14781020137925002
aF0.37578857421874995
aa(lp14
F-0.34906585039900007
aF0.63625
aF0.9645992026590031
aF0.468750345038634
aF-0.34906585039900007
aF0.8999054924865402
aF0.662872134818369
aF0.45409765625000004
aF-0.34906585039900007
aF0.8942258718092372
aF0.5405684518380001
aF0.6033034349249791
aF-0.136115125058
aF1.0888587631
aF-0.156098775598
aF0.36750000000000005
aa(lp15
F0.21027563912199998
aF0.5799609375
aF0.7361940027551723
aF0.4034304622359599
aF-0.349065850399
aF0.9275
aF0.346515233031
aF0.09275
aF-0.349065850399
aF0.9134570312499999
aF0.265453125
aF0.29062653721867604
aF0.575326950096
aF1.2217304764
aF-0.516098775598
aF0.0075
aa.