(lp0
(F0.0561201126528
F0.465971917607
F1.1528545643999997
F0.007125
F-0.349065850399
F0.7088271434942706
F0.1281796875
F0.876129768173846
F-0.349065850399
F0.8492471007735567
F0.1947421875
F0.528401563106887
F0.462906910453
F0.283144814134
F0.0
F-0.493598775598
F0.20124999999999998
tp1
a(F-0.349065850399
F0.155496056390243
F1.2339982135304888
F0.15732389472543318
F-0.349065850399
F0.055
F1.57079632679
F0.0055
F-0.349065850399
F0.224609375
F1.4780630922473055
F0.224609375
F-0.100357981647
F0.45500000000000007
F0.0
F-0.0685987755983
F0.45500000000000007
tp2
a(F-0.34906585039899996
F1.1063572667735624
F0.1542366382149778
F0.12089831542968749
F-0.34906585039899996
F1.3530520629882812
F0.16505587118645337
F0.16357421875
F-0.34906585039899996
F1.4372918078058985
F0.0
F0.0
F0.329547013009
F1.2217304764
F0.0
F-0.357973775598
F0.165625
tp3
a(F-0.3490658503988659
F0.6000000000000004
F0.06000000000000005
F0.4657500000000004
F-0.3490658503988659
F0.6475000000000005
F0.1087500000000001
F0.9151712985850569
F-0.3490658503988659
F0.2962500000000001
F1.3157978531842769
F0.5054034051822628
F1.0471975511965976
F0.17634437561609786
F0.0
F-0.4923487755982988
F0.03125
tp4
a(F-0.349065850399
F0.5429912392855765
F0.13831459292040504
F0.5043865549508411
F-0.349065850399
F0.6475
F0.06475
F0.18175
F-0.349065850399
F0.5157812500000001
F0.20978125
F0.18353097002213214
F1.0471975512
F0.643477029311
F0.0
F-0.509848775598
F0.01375
tp5
a(F-0.349065850399
F0.621875
F0.441691690554
F0.06218749999999999
F-0.349065850399
F0.633037109375
F0.24000663954862045
F0.3501762056916382
F-0.349065850399
F0.7218702754049999
F0.0173125
F1.17248860251
F0.975052681469
F0.110625
F0.0
F-0.412973775598
F0.110625
tp6
a(F0.010352050008451075
F0.21375000000000005
F1.5707963267948966
F0.021375000000000012
F-0.3490658503988659
F0.3812500000000002
F1.5707963267948966
F0.03812500000000003
F-0.3490658503988659
F0.7862500000000006
F0.07862500000000006
F1.5707963267948966
F-0.06907255119659676
F1.2217304763960306
F0.0
F0.45452622440170176
F0.9781250000000007
tp7
a(F0.0601249982656
F0.05
F1.57079632679
F0.005
F-0.349065850399
F0.19
F1.57079632679
F0.019
F-0.349065850399
F0.2675377065821893
F1.482866485631512
F0.0869140625
F0.504225003621
F0.634610866978
F0.0
F-0.473598775598
F0.05
tp8
a(F-0.349065850399
F0.2855078125
F0.9611157505345458
F0.1455078125
F-0.349065850399
F0.7163458251953125
F0.2303458251953125
F0.4239567845883263
F-0.349065850399
F0.463359375
F1.3372816932819531
F0.255859375
F-0.0354187169444
F0.8731249999999999
F0.0
F0.424594727141
F0.8731249999999999
tp9
a(F-0.349065850399
F0.4947818427405218
F0.0
F0.7011798642556872
F-0.349065850399
F0.31456659870138415
F0.5341607605773702
F0.23469258722842312
F-0.349065850399
F0.1975
F1.1236658343
F0.01975
F0.785317280964
F0.263147614658
F0.0
F-0.310473775598
F0.213125
tp10
a(F-0.349065850399
F1.14591693523
F0.08662500000000001
F0.08662500000000001
F-0.349065850399
F1.35617193268
F0.017
F0.017
F-0.349065850399
F1.3499676392851536
F0.14406494140625
F0.12691637340210107
F0.500119745762
F1.2217304764
F0.0
F-0.411098775598
F0.11250000000000002
tp11
a(F-0.3490658503988659
F0.7962500000000005
F0.07962500000000006
F0.07962500000000006
F-0.3490658503988659
F0.7312500000000004
F0.07312500000000005
F0.07312500000000005
F-0.2613682255921123
F0.0775
F1.5707963267948966
F0.00775
F0.48332167760259337
F0.155
F0.0
F-0.36859877559829873
F0.155
tp12
a(F-0.349065850399
F0.646083336168
F0.16038671875000002
F0.5608912182398758
F-0.349065850399
F0.5145465087890625
F0.6177983962797495
F0.35606878726748903
F-0.349065850399
F0.840909089041
F0.6419999999999999
F0.49303501478929235
F-0.110947551197
F0.93625
F0.0
F0.4126512244020001
F0.93625
tp13
a.