(lp0
(F0.209243774178
F0.0
F0.837890625
F0.837890625
F-0.34906585039899996
F0.638542912071586
F0.050578125
F1.2571702963300049
F-0.34906585039899996
F0.6140761994806121
F0.29090425728811553
F0.8439620837838218
F0.1161953314191333
F1.2219727642173415
F0.0
F0.317507906973709
F0.0238037109375
tp1
a(F-0.0787259001515
F0.496487918427
F0.518271776781
F0.940429307313
F-0.349065850399
F0.8300000000000001
F0.083
F0.7021250000000001
F-0.349065850399
F0.7296484375
F0.2548984375
F0.2021484375
F0.00111591292949
F1.0214317803
F0.0
F-0.0137970380192
F0.0875
tp2
a(F-0.349065850399
F0.5297574815137629
F0.5467895302827757
F0.5773394092671964
F-0.349065850399
F0.5725
F0.05725
F1.57
F-0.292944233795
F0.18
F0.764016776217
F1.57
F-0.759697551197
F0.2875
F0.0
F-0.236098775598
F1.10163155114
tp3
a(F-0.3490658503988659
F0.12124999999999998
F0.8494357822861314
F1.5707963267948966
F-0.3490658503988659
F0.13124999999999998
F1.5707963267948966
F0.24382610095329665
F-0.3490658503988659
F0.15625
F1.453133482306606
F0.3606250000000003
F-0.14960819896890273
F0.6640032186137297
F0.0
F-0.06563896662905234
F0.23625000000000007
tp4
a(F0.05605590563914439
F0.16
F1.5707963267948966
F0.016000000000000007
F-0.3490658503988659
F0.8837500000000006
F0.08837500000000006
F0.6978735602592506
F-0.3490658503988659
F0.9868750000000007
F0.09868750000000008
F0.09868750000000008
F-0.23737216436599945
F1.2217304763960306
F0.0
F0.5235987755982988
F0.19255777797232054
tp5
a(F-0.34906585039899996
F0.69021484375
F0.169328125
F0.841796875
F-0.34906585039899996
F0.755
F0.0755
F0.4975
F-0.34906585039899996
F0.6974631155104102
F0.042390625
F0.2749506588720303
F0.319727583248
F1.2217304764
F0.0
F-0.264078575728
F0.07
tp6
a(F-0.349065850399
F0.31375
F0.754046875
F0.419921875
F-0.349065850399
F0.40564453125
F0.9153031430074021
F0.29764453125
F-0.349065850399
F0.4392079162597655
F0.8531658389446724
F0.6012628260077344
F0.3862060373552755
F1.2219949990738281
F0.0
F-0.2894529226628574
F0.2207760509231509
tp7
a(F-0.349065850399
F0.75125
F0.075125
F1.1465625
F-0.349065850399
F0.6651566833759333
F0.46481952249473135
F1.029296875
F-0.349065850399
F0.63875
F0.063875
F1.57
F0.20479038634000002
F0.6047171361219998
F0.0
F-0.377807628232
F0.04375
tp8
a(F-0.349065850399
F0.47134095998600006
F0.74698041264
F0.263671875
F-0.349065850399
F0.6535154724121095
F0.5135154724121094
F0.5135154724121094
F-0.349065850399
F0.7701635742187498
F0.21411718750000003
F0.1513671875
F0.538816015566
F1.2217304764000003
F0.0
F-0.503598775598
F0.02
tp9
a(F-0.349065850399
F0.4962500000000001
F0.049625
F1.5699999999999998
F-0.349065850399
F0.575
F0.5037433701776797
F1.2684375
F-0.349065850399
F0.63875
F0.063875
F1.5699999999999998
F0.393337419861
F1.2217304764
F0.0
F-0.49734877559800006
F0.13625
tp10
a(F0.0966208070958
F0.29916015625
F0.9483186977133862
F0.20166015625
F-0.349065850399
F0.44
F0.566453125
F0.439453125
F-0.349065850399
F0.32
F0.498
F0.498
F0.346040442018
F0.734958447693
F0.0
F-0.378598775598
F0.4025000000000001
tp11
a(F-0.349065850399
F0.50625
F0.419625
F0.419625
F-0.349065850399
F0.5321882461416001
F0.5631255251450122
F0.45265234375
F-0.349065850399
F0.5222265625
F0.6425765896110274
F0.4384765625
F0.424260327188
F0.839059023014
F0.0
F-0.519848775598
F0.00375
tp12
a(F-0.349065850399
F0.40037353515625
F0.66549796620425
F1.07818603515625
F-0.349065850399
F0.41875
F0.89140625
F0.89140625
F-0.349065850399
F0.3059375
F0.7895552082431639
F1.4298071429880452
F0.05982816094219999
F1.0035528569
F0.0
F-0.4235987755980001
F0.22
tp13
a(F-0.34906585039900007
F0.5725
F0.08325
F0.34581442411
F-0.34906585039900007
F0.3825
F0.571551634496
F0.03825
F-0.34906585039900007
F0.09
F0.7285468749999999
F0.5881555117931425
F0.279093535023
F1.2217304764
F0.0
F-0.234848775598
F1.57079632679
tp14
a(F0.087188501154
F0.6273651885986328
F0.5473651885986328
F0.8962149852036327
F-0.349065850399
F0.8913788243963574
F0.161953125
F0.5548485071439115
F-0.349065850399
F0.9012499999999999
F0.090125
F1.08015625
F0.178145851639
F1.2217304764
F0.0
F-0.432348775598
F0.09125
tp15
a(F0.247952976127
F0.5524218750000001
F0.513671875
F0.513671875
F-0.349065850399
F0.551422119140625
F0.7920276558733237
F0.551422119140625
F-0.349065850399
F0.9112499999999999
F0.091125
F0.091125
F-0.392513087853
F1.2217304764
F0.0
F0.523598775598
F0.02625
tp16
a(F0.089011648351
F0.22
F0.5130937499999999
F0.46484375
F-0.34906585039899996
F0.604870645853
F0.22435546875
F0.18310546875
F-0.34906585039899996
F0.53830078125
F0.38330078125
F0.38330078125
F-0.133474356806
F1.11502214286
F0.0
F0.523598775598
F0.5125
tp17
a(F0.2725901941245704
F0.8625000000000007
F0.08625000000000006
F0.2127219036103803
F-0.3490658503988659
F0.6122234315252348
F0.001
F1.5707963267948966
F-0.3490658503988659
F0.31625000000000014
F0.3981609621841514
F1.5707963267948966
F-0.1435284051660542
F0.6993409193648209
F0.0
F-0.45984877559829873
F0.06375
tp18
a(F-0.349065850399
F0.1325
F0.49375
F1.57079632679
F-0.349065850399
F0.2325
F0.580648647887
F1.57079632679
F-0.349065850399
F0.4475
F0.04475
F1.57
F0.275358008266
F0.652757384539
F0.0
F-0.516098775598
F0.3475
tp19
a(F-0.349065850399
F0.5930414948010625
F0.0879625244140625
F0.0725250244140625
F-0.349065850399
F0.653125
F0.507153061658
F0.2713125
F-0.349065850399
F0.7621875
F0.252
F0.1953125
F0.371244837553
F1.2217304764
F0.0
F-0.484223775598
F0.039375
tp20
a(F-0.34906585039900007
F0.165
F0.4770540771484375
F0.4085540771484375
F-0.34906585039900007
F0.1
F0.6533046874999999
F0.4248046875
F-0.34906585039900007
F0.015
F0.6644687499999999
F0.6644687499999999
F0.08471032268283712
F1.1922016289001953
F0.0
F0.47120104298893756
F0.16105051616713562
tp21
a(F-0.349065850399
F0.7714012167868067
F0.7833488247227042
F0.5640989929159277
F-0.349065850399
F1.0017676712896388
F0.6839816009471038
F0.2466769218536342
F-0.349065850399
F0.955955094373502
F0.516860180346
F0.748046875
F-0.15136466497199996
F1.2217304763999999
F0.0
F-0.47734877559800004
F0.519107099072
tp22
a(F0.185725096026
F0.03125
F1.57079632679
F0.003125
F-0.349065850399
F0.81625
F0.081625
F1.14013478753
F-0.349065850399
F0.940928183651
F0.026
F0.067
F0.383414484748
F1.2217304764
F0.0
F-0.502348775598
F0.02125
tp23
a(F0.217887189516
F0.20578125
F1.0935953021270082
F0.7196093750000001
F-0.19133456304900004
F0.50125
F0.492125
F1.57079632679
F-0.349065850399
F0.559391292942
F0.022875
F1.57
F0.272033604026
F1.2217304764
F0.0
F-0.457348775598
F0.06625
tp24
a(F-0.3490658503988659
F0.035
F0.0035000000000000005
F1.5707963267948966
F-0.3490658503988659
F0.13999999999999999
F0.014000000000000005
F1.0403822409229095
F-0.3490658503988659
F0.12374999999999997
F0.32200000000000023
F0.32200000000000023
F0.5588863101156175
F1.2217304763960306
F0.0
F-0.4248487755982987
F1.29778975554155
tp25
a.