(lp0
(F0.275379063233
F0.080625
F1.34236599135
F0.0080625
F-0.208526065571
F0.135625
F1.57079632679
F0.0135625
F-0.349065850399
F0.6567770391175198
F0.5300145724981391
F0.1614797015629108
F0.17448104236410528
F1.2219959948380135
F0.0
F0.393650156507651
F0.0
tp1
a(F0.0631828421981
F0.8600971716062493
F0.5405415237292797
F0.2199370481172478
F-0.34906585039899996
F0.7998132228851318
F0.26146881103515623
F0.20084381103515625
F-0.34906585039899996
F0.67625
F0.067625
F0.498625
F0.300697435047
F1.2217304764
F0.0
F-0.476098775598
F0.841551916743
tp2
a(F0.123947087146
F1.0370043945312502
F0.3933799368235789
F0.7554576153873844
F-0.349065850399
F0.80625
F1.14745696031
F0.080625
F-0.349065850399
F0.488291129455
F1.57079632679
F0.01725
F-0.568646266004
F0.872566031009
F0.0
F-0.486098775598
F0.0375
tp3
a(F-0.07715276750426762
F0.14125
F1.51571630415991
F0.014125000000000006
F-0.3490658503988659
F1.0303684773341537
F0.08900000000000007
F0.08900000000000007
F-0.3490658503988659
F1.0662500000000006
F0.10662500000000008
F0.10662500000000008
F0.1279794891465011
F1.2217304763960306
F0.0
F-0.35609877559829867
F0.9797336104134725
tp4
a(F-0.349065850399
F1.124889174675153
F0.3093967455452593
F0.0
F-0.349065850399
F0.753942562174412
F0.8436763953072699
F0.0548299560546875
F-0.349065850399
F0.71125
F0.071125
F1.57079632679
F0.13704055127
F1.2217304764
F0.0
F-0.492348775598
F0.733378912502
tp5
a(F-0.349065850399
F0.235
F0.5053124999999999
F1.570790105486953
F-0.349065850399
F0.04
F1.57079632679
F0.004
F-0.349065850399
F0.148895263671875
F1.1424673192144736
F0.49768719896747005
F-0.182197551197
F1.2217304764
F0.0
F0.523598775598
F1.35771423224
tp6
a.