(lp0
(F-0.34906585039900007
F0.3089459228515625
F0.1975709228515625
F0.1851959228515625
F-0.34906585039900007
F0.3360129547119141
F0.30976295471191406
F0.3123879547119141
F-0.34906585039900007
F0.549310339238
F0.014625
F0.014625
F0.23977353175099997
F1.2217304764
F0.0
F-0.503598775598
F1.57079632679
tp1
a(F-0.349065850399
F0.05750000000000001
F0.00575
F0.7655951625419999
F-0.349065850399
F0.20667968750000001
F0.19205468750000002
F0.1904296875
F-0.349065850399
F0.45220873832702635
F0.36597658533436306
F0.25345873832702637
F1.0471975512
F1.2217304764
F0.0
F-0.43484877559800006
F0.08875
tp2
a(F0.34906585039900007
F1.5124461886699998
F0.0016875
F0.0016875
F-0.242047524565
F1.1536992996520734
F0.1380615234375
F0.1380615234375
F-0.34906585039900007
F1.1176034732739806
F0.2417505022070099
F0.0
F-0.510176024285
F1.2217304764
F0.0
F-0.520473775598
F1.57079632679
tp3
a(F-0.349065850399
F0.6275
F0.06275
F0.06275
F-0.349065850399
F0.5870403051376343
F0.4909621379903685
F0.136627197265625
F-0.349065850399
F0.6028772735595703
F0.42142313054184677
F0.2753772735595703
F-0.567197551197
F1.2217304764
F0.0
F0.523598775598
F1.57079632679
tp4
a(F-0.349065850399
F0.6484324611674062
F0.28195953369140625
F0.2928970336914063
F-0.349065850399
F0.9518749318220001
F0.04768750000000001
F0.04768750000000001
F-0.349065850399
F0.9753746499340001
F0.0659375
F0.0659375
F0.0214862056961
F1.2217304764
F0.0
F-0.429223775598
F1.57079632679
tp5
a.