(lp0
(F-0.349065850399
F0.1376953125
F1.2288210119757927
F0.9823320230426265
F-0.349065850399
F0.06640625
F1.2685423094758923
F1.4055408410703694
F-0.349065850399
F0.11082175425221763
F0.99962208565856
F1.5707092285517046
F0.39280374795899997
F1.2218874791594758
F0.0
F0.06267075565199998
F0.5862695312499999
tp1
a(F0.30302926352816745
F0.3507877441827836
F1.2220535318579806
F0.7534472012598903
F-0.3397479113771244
F1.080359608937623
F0.5210445684899592
F0.11734936732311407
F-0.349065850399
F1.2775
F0.12775
F0.12775
F0.320376309384
F1.2217304764
F0.0
F-0.426098775598
F0.0975
tp2
a(F-0.349065850399
F0.389639708051821
F1.1094078086494608
F0.14179205322265626
F-0.349065850399
F0.3
F1.57079632679
F0.03
F-0.349065850399
F0.600163102091577
F0.9918082870652136
F0.24274678972462693
F0.0177455559954
F1.2217304764
F0.0
F0.523598775598
F0.46
tp3
a(F-0.349065850399
F0.089375
F1.21618672701
F0.58798317339
F-0.349065850399
F0.5130199539019613
F0.9944946013847034
F0.088036865234375
F-0.349065850399
F0.7575944939070838
F0.6414488019709441
F0.06807688903808592
F0.7740402310529999
F1.2217304764
F0.0
F-0.481723775598
F0.041875
tp4
a(F0.251226910974
F0.0
F1.24281991706
F0.0
F-0.34906585039899996
F0.27847691410644165
F0.7551131762577001
F0.6603484249522251
F-0.34906585039899996
F0.34550288626545406
F0.5871365833861955
F0.7446412670300032
F1.0471975512
F1.2217304764
F0.0
F-0.511098775598
F0.0125
tp5
a(F-0.349065850399
F0.055
F1.57079632679
F0.0055
F-0.349065850399
F0.11061574930616228
F1.1555521194804135
F0.5580703124999999
F-0.349065850399
F0.044921875
F1.0424212575439076
F0.6622794745877245
F-0.0221975511966
F1.025
F0.0
F0.501401224402
F1.025
tp6
a.