(lp0
(F0.048603645917
F0.6846875
F0.29683754853742284
F0.37030029296875
F0.18339359722800003
F0.6920096637154994
F0.31725562831709575
F0.6124248808884296
F0.201403659229
F0.50125
F0.622453125
F0.486328125
F0.659028124596
F1.2217304764000003
F0.0
F-0.399848775598
F0.12375
tp1
a(F-0.349065850399
F0.8978451694724187
F0.22016455078124997
F0.20928955078125
F-0.349065850399
F0.8908124706225692
F0.237187744140625
F0.217437744140625
F-0.349065850399
F0.6354287814963079
F0.2590233066935257
F0.8332163566771298
F0.498832406679
F1.0101112665
F0.0
F-0.48609877559799997
F0.0375
tp2
a(F-0.349065850399
F0.33631397717207745
F0.8719599890937322
F0.7896782231427402
F-0.349065850399
F0.24093321309411064
F1.4246466569282843
F0.06927783726331072
F-0.349065850399
F0.11000000000000001
F1.57079632679
F0.011
F0.16896766135449956
F1.221838917533565
F0.0
F0.0505762334193125
F0.53734375
tp3
a(F-0.3490658503988659
F0.12937499999999996
F0.012937500000000005
F1.3201322856885735
F-0.3490658503988659
F0.14312499999999997
F0.014312500000000006
F0.6979965187138997
F-0.3490658503988659
F0.10937499999999997
F0.010937500000000003
F0.010937500000000003
F0.7139451386090323
F1.2217304763960306
F0.0
F-0.5154737755982988
F0.716286747792082
tp4
a(F-0.349065850399
F0.2258984375
F0.19046093749999998
F0.19434605413037254
F-0.349065850399
F0.125625
F0.22729485253
F0.589645763965
F-0.349065850399
F0.025
F0.3465625
F0.3465625
F0.467655735146
F1.2217304764
F0.0
F0.42731523275
F0.035625
tp5
a(F-0.349065850399
F0.10546875
F0.7964152245997784
F0.6015937499999999
F-0.349065850399
F0.08203125
F1.0750906565955076
F0.09515625000000003
F-0.349065850399
F0.0390625
F0.7170985265327846
F0.6734202031839461
F0.6353743882992303
F1.0517019300260442
F0.0
F-0.21370289746648047
F0.3121093749999999
tp6
a(F-0.349065850399
F0.10091456557376155
F1.2957734563337642
F0.09375
F-0.349065850399
F0.0703125
F1.4301215959760873
F0.11390308447786746
F-0.349065850399
F0.0244140625
F1.4862803981025685
F0.027414062499999996
F0.747927058273
F1.2217304764
F0.0
F-0.504848775598
F0.416607049617
tp7
a(F-0.34906585039899996
F0.355712890625
F1.1638246858379018
F0.37461870243969386
F-0.34906585039899996
F0.255859375
F1.096238587551369
F0.40260937499999994
F-0.34906585039899996
F0.2021484375
F0.6884245954239094
F0.5662634560818924
F0.189287873489
F0.459278160596
F0.0
F-0.327348775598
F0.19625000000000004
tp8
a(F-0.3490658503988659
F0.26259417370900495
F0.01750000000000001
F0.42327018551093654
F-0.3490658503988659
F0.3487500000000001
F0.034875000000000024
F0.034875000000000024
F-0.3490658503988659
F0.10030544245490114
F0.5211191773323773
F0.008375
F0.9613641959622619
F1.2217304763960306
F0.0
F-0.5110987755982987
F0.6389926358074851
tp9
a(F-0.328693115006
F0.2575
F1.4487235123
F0.02575
F-0.349065850399
F0.13647238937423412
F1.5707387797413592
F0.09085933482271358
F-0.349065850399
F0.0075
F1.57079632679
F0.00075
F0.364461717175
F0.752426228678
F0.0
F-0.454848775598
F0.175601750083
tp10
a(F-0.3490658503988659
F0.05750000000000001
F0.5187673232315005
F0.4016875000000003
F-0.3490658503988659
F0.17250000000000001
F0.3856875000000003
F0.3856875000000003
F-0.3490658503988659
F0.19687500000000002
F0.4258669337699743
F0.12529099923839343
F1.0471975511965976
F1.2217304763960306
F0.0
F-0.38359877559829875
F0.13999999999999999
tp11
a(F-0.349065850399
F0.401057747443317
F1.217257252518895
F0.1884765625
F-0.349065850399
F0.513013074014588
F1.0118953994860294
F0.3643761626161883
F-0.349065850399
F0.42916015625000004
F1.1121846806191134
F0.21034765625
F0.510174468657
F1.2217304764
F0.0
F-0.44047377559799994
F0.083125
tp12
a.