(lp0
(F-0.349065850399
F0.3510513177826464
F1.1551784554203437
F0.138671875
F-0.349065850399
F0.4274255027177988
F1.268094428197631
F0.13121795654296875
F-0.349065850399
F0.6592955153140705
F0.9903239656793195
F0.0
F0.44147162697
F1.2217304764
F0.0
F-0.436098775598
F0.11521490736199999
tp1
a(F-0.349065850399
F0.639375
F0.920026302025
F0.0639375
F-0.349065850399
F0.6589596946781819
F1.0662235821614783
F0.2197113037109375
F-0.349065850399
F0.555481592106
F1.5397279884
F0.0191875
F0.12403067321706249
F1.2217589068297912
F0.0
F-0.3152561706067131
F0.19310701913929607
tp2
a.