(lp0
(F0.16402276547100003
F0.171875
F0.204125
F0.171875
F-0.34906585039900007
F0.11611282825469971
F1.0072369496143576
F0.11611282825469971
F-0.34906585039900007
F0.08499999999999999
F1.17698350784
F0.0085
F0.7405006421333672
F1.2217483744478568
F0.0
F-0.423442525598
F0.10015625
tp1
a(F-0.349065850399
F0.6936573414471021
F0.8975642813234395
F0.5434555609464504
F-0.349065850399
F0.44
F1.51475616058
F0.044
F-0.349065850399
F0.29
F1.57079632679
F0.029
F-0.565561516281
F1.2217304764
F0.0
F0.523598775598
F0.665942201002
tp2
a(F-0.349065850399
F0.2875
F0.38075
F1.26712439332
F-0.349065850399
F0.23000000000000004
F0.39875
F1.57079632679
F-0.349065850399
F0.04394681867478284
F0.862589853929312
F1.0681793996322713
F0.350607556097
F0.496939934042
F0.0
F-0.4310987755979999
F0.0925
tp3
a(F-0.34906585039900007
F0.4991643056793478
F0.824518247709207
F0.43072060094918574
F-0.34906585039900007
F0.065
F1.57079632679
F0.15425975811
F-0.34906585039900007
F0.1142578125
F1.29179896837574
F0.1142578125
F0.13748321406672692
F1.206179948713537
F0.0
F-0.156059713098
F0.36753906249999996
tp4
a(F-0.349065850399
F0.17333984375
F0.9641131129048564
F0.17333984375
F-0.349065850399
F0.11190086547363975
F0.8106677285493222
F0.6002890625
F-0.349065850399
F0.19022546523465245
F0.16994531249999997
F1.2069912768171456
F0.6185134085199999
F1.04952619303
F0.0
F-0.463598775598
F0.06
tp5
a(F-0.349065850399
F0.3236597293868433
F1.1194862491920234
F0.06962513050083963
F-0.349065850399
F0.0125
F1.57079632679
F0.0012500000000000002
F-0.349065850399
F0.1015625
F0.942497699229423
F0.7226364741962249
F0.20385868374187918
F1.2218291788877185
F0.0
F-0.123637838098
F0.3999609375
tp6
a.