(lp0
(F0.211074475637
F0.08625
F1.57079632679
F0.008625
F-0.349065850399
F0.44857666015625
F0.9168966120608631
F0.07232666015625
F-0.349065850399
F0.6426842498779297
F0.4936199429415
F0.0062255859375
F0.555499809181
F1.2217304764
F0.0
F-0.464848775598
F0.191957190765
tp1
a(F0.237642237807
F0.34
F1.57079632679
F0.034
F-0.349065850399
F0.831980104446411
F0.513217513352509
F0.4252190144433259
F-0.349065850399
F1.05125
F0.105125
F0.105125
F0.309919113409
F1.2217304764
F0.0
F-0.516098775598
F0.0075
tp2
a(F0.34906585039900007
F1.4414979945600002
F0.0055
F0.281544435894
F-0.34906585039900007
F1.1391159252414491
F0.6903745082401895
F0.09442138671875
F-0.34906585039900007
F0.7108251953125
F1.216833703780703
F0.138671875
F-0.867197551197
F0.9791608017709998
F0.0
F0.523598775598
F0.18
tp3
a(F0.12302222451800002
F0.5525
F1.57079632679
F0.05525
F-0.349065850399
F0.8570188970106136
F0.6582636912239632
F0.582649004547247
F-0.349065850399
F0.7330928834463692
F0.8822453582861909
F0.0
F-0.525947551197
F1.2217304764
F0.0
F0.523598775598
F0.52125
tp4
a(F0.292015261245
F0.246875
F1.57079632679
F0.0246875
F-0.349065850399
F0.25020781681244797
F1.3957326632351181
F0.07228023092623914
F-0.349065850399
F0.07374999999999998
F1.57079632679
F0.007375
F0.318149120184
F1.2217304764
F0.0
F-0.416723775598
F0.744068581944
tp5
a(F-0.00361810787463
F1.049561767578125
F0.3010859375
F0.5050077917498195
F-0.34906585039899996
F1.0537158203124999
F0.311453125
F0.220703125
F-0.34906585039899996
F1.06887202395
F0.0025
F0.569058269942
F-0.564697551197
F1.2217304764
F0.0
F0.523598775598
F0.98155897771
tp6
a(F-0.349065850399
F0.455
F1.57079632679
F0.0455
F-0.349065850399
F0.4321070158875482
F1.3360097696026496
F0.20614393561893718
F-0.349065850399
F0.2769530856492012
F1.4053297275936723
F0.0517578125
F0.107409551284
F1.01354378597
F0.0
F-0.423598775598
F0.1
tp7
a(F-0.3490658503988659
F1.0425000000000006
F0.46228652544492016
F1.5707963267948966
F-0.3490658503988659
F1.1612500000000008
F0.11612500000000009
F1.5707963267948966
F-0.3490658503988659
F0.48750000000000027
F1.2016968761876137
F1.29682776979049
F-0.5346975511965971
F1.2217304763960306
F0.0
F-0.011098775598298496
F1.5707963267948966
tp8
a(F-0.326998378703
F0.9522348139715764
F0.8134156337382081
F0.298312578183773
F-0.349065850399
F0.893897608892
F0.993800239516
F0.009125
F-0.349065850399
F0.9441026626873797
F0.7379253483655833
F0.068078125
F-0.451467188613
F1.2217304764
F0.0
F-0.249848775598
F1.57079632679
tp9
a(F-0.34906585039900007
F0.9909443233356147
F0.9188708519898929
F0.23099353027343744
F-0.34906585039900007
F0.7974028355786345
F1.302709064802049
F0.1867401067506238
F-0.34906585039900007
F0.7982114429003093
F1.1647094668311206
F0.1025390625
F-0.6459475511969999
F1.2217304764
F0.0
F-0.0802392026468
F1.57079632679
tp10
a(F0.176138510201
F0.42740631103515625
F1.5704559716971114
F0.42740631103515625
F0.193771303169
F0.3796539306640625
F1.5704939981940833
F0.43365393066406244
F-0.34906585039899996
F0.266876220703125
F1.57058380610943
F0.3144114429596534
F-0.11218918865399999
F1.2217304764
F0.0
F-0.37922041713599997
F1.57079632679
tp11
a(F0.175568462215
F0.8529562182693722
F1.1178065052867798
F0.12390899658203125
F-0.349065850399
F0.7237325798766127
F1.30960050265965
F0.1376953125
F-0.349065850399
F0.44464274236968526
F1.5707263371351887
F0.087890625
F-0.8321975511970001
F0.81602800826
F0.0
F0.523598775598
F0.215
tp12
a(F-0.34906585039899996
F0.8035217678679922
F0.8899674356634868
F0.2270015822782543
F-0.34906585039899996
F0.8063794394432048
F0.8688760464325029
F0.34768791418109846
F-0.34906585039899996
F0.8223389290354588
F0.865664628689502
F0.15184375
F-0.32816569289100006
F1.2217304764
F0.0
F0.430027381038
F0.328135274859
tp13
a(F-0.34906585039899996
F0.440625
F1.57079632679
F0.0440625
F-0.34906585039899996
F0.800460000038147
F0.8156697923779481
F0.37577354013600317
F-0.34906585039899996
F0.530055229089
F1.07202002401
F0.49657411523000006
F0.0260148550993
F1.2217304764
F0.0
F-0.492973775598
F0.965359333731
tp14
a(F-0.349065850399
F0.6100048288907371
F0.865636830177759
F0.4164780814382909
F-0.349065850399
F0.5744064769299029
F0.9506785071140532
F0.6026516082700093
F-0.349065850399
F0.5056294485039595
F1.1084415659975162
F0.1181640625
F0.145390110424
F1.2217304764
F0.0
F-0.513598775598
F0.788090165187
tp15
a(F-0.349065850399
F1.04375
F0.104375
F0.104375
F-0.349065850399
F0.53515625
F0.59003125
F0.53515625
F-0.349065850399
F0.1578189730644226
F0.6488289243350001
F1.155240528041953
F0.20774375538
F0.755360935469
F0.0
F-0.216293206505
F0.0875
tp16
a(F0.220464749347
F1.13203388729
F0.456365796117
F0.170375
F-0.349065850399
F0.892487074136734
F0.781319606953018
F0.2915645056727445
F-0.349065850399
F1.09375
F0.109375
F0.717125
F-0.333774096879
F1.2217304764000003
F0.0
F-0.050483201582300005
F1.4164886217699997
tp17
a(F-0.349065850399
F0.5186876285226905
F1.2430180463556295
F0.0
F-0.349065850399
F0.34321118432142783
F1.1750769093464153
F0.2539041220844994
F-0.349065850399
F0.00875
F1.57079632679
F0.0008750000000000001
F0.31566720933900005
F1.2217304764
F0.0
F-0.217363785997
F0.04875
tp18
a(F-0.34906585039900007
F0.6634440206090089
F0.8333116864339798
F0.12055206298828125
F-0.34906585039900007
F0.5920623258391182
F1.0162176483794503
F0.15607580566406254
F-0.34906585039900007
F0.33
F1.49105002965
F0.033
F0.25009947189
F1.2217304764
F0.0
F-0.377473573745
F0.07
tp19
a(F-0.349065850399
F0.4627941090775073
F0.988933235937621
F0.2693777495930749
F-0.349065850399
F0.13
F1.57079632679
F0.013
F-0.349065850399
F0.15625
F1.1938884783072439
F0.15625
F0.160190582629
F0.880896036301
F0.0
F-0.253598775598
F0.27
tp20
a(F-0.349065850399
F0.25
F1.555298040505
F0.285
F-0.349065850399
F0.3484439983110734
F1.488470285252116
F0.277252197265625
F-0.349065850399
F0.05344435510266621
F1.4782455328438648
F0.5462677001953126
F-0.0884475511966
F1.2217304764
F0.0
F0.43515122440199994
F0.95875
tp21
a(F0.349065850399
F1.52177841662
F0.00175
F0.00175
F-0.349065850399
F0.60375
F1.57079632679
F0.060375
F-0.349065850399
F0.445249695145821
F1.5707310031125026
F0.08203125
F-0.372801227768
F1.2217304764
F0.0
F-0.251538099871
F1.57079632679
tp22
a(F-0.349065850399
F0.6971207253116849
F1.0556697261963703
F0.030440968416604264
F-0.349065850399
F0.3650813674802337
F1.5707076732215821
F0.11796474033506325
F-0.349065850399
F0.264952243543
F1.57079632679
F0.000125
F-0.435947551197
F1.2217304764
F0.0
F0.523598775598
F0.61125
tp23
a(F0.279057842202
F0.9450812286279346
F0.9879531857080122
F0.28125
F-0.34906585039900007
F0.8011817122672882
F1.1390850930438292
F0.224609375
F-0.34906585039900007
F0.7307934041284996
F1.1142616475931448
F0.20587868909433404
F-0.780500621264957
F1.2218023575137533
F0.0
F0.5237057809142271
F0.9751078844070435
tp24
a(F-0.34906585039899996
F0.7785324673283727
F0.7776913931475238
F0.4100132225122426
F-0.34906585039899996
F0.5220215726228719
F1.078481102290605
F0.6618125
F-0.34906585039899996
F0.2025
F1.57079632679
F0.02025
F0.330905672329
F1.2217304764
F0.0
F-0.503598775598
F0.72311363574
tp25
a.