(lp0
(F-0.34906585039900007
F0.4670764496210692
F0.6005141438421877
F0.01606689453125
F-0.34906585039900007
F0.58125
F0.866286719973
F0.058125
F-0.34906585039900007
F0.07875
F1.57079632679
F0.007875
F1.0471975512
F0.05625
F0.0
F-0.467348775598
F0.05625
tp1
a(F-0.349065850399
F0.60541392629146
F0.0
F0.12886180383443957
F-0.349065850399
F0.740014545549
F0.05225
F0.05225
F-0.349065850399
F0.446519193827
F0.00775
F1.0408231158
F0.27847578500256975
F1.062215754491808
F0.0
F-0.028267498006851133
F1.067849621833
tp2
a(F-0.34906585039899996
F0.5175238300623828
F0.3724765751532426
F0.08363740815612863
F-0.34906585039899996
F0.02
F1.28443902855
F0.0438323040691
F-0.34906585039899996
F0.16015625
F0.6868728537474875
F0.4637561375591579
F1.0471975512
F0.315425396279
F0.0
F-0.499848775598
F0.02375
tp3
a(F-0.3490658503988659
F0.7878540157884615
F0.005125
F0.005125
F-0.3490658503988659
F0.9462500000000007
F0.09462500000000007
F0.1436250000000001
F-0.3490658503988659
F0.11124999999999999
F1.5707963267948966
F0.011125000000000003
F1.0471975511965976
F0.051250000000000004
F0.0
F-0.47234877559829874
F0.051250000000000004
tp4
a.