(lp0
(F-0.3490658503988659
F0.015
F0.022125000000000013
F1.5707963267948966
F-0.3490658503988659
F0.22125000000000006
F0.022125000000000013
F1.5707963267948966
F-0.3490658503988659
F0.31125000000000014
F0.03112500000000002
F1.4546534818062764
F1.0471975511965976
F1.2217304763960306
F0.0
F-0.5010987755982987
F0.022500000000000003
tp1
a(F0.240395012819
F0.11179687499999999
F0.093796875
F0.091796875
F-0.349065850399
F0.25125
F0.0770656611991
F0.452125
F-0.349065850399
F0.22880340576171876
F0.19167840576171874
F0.18755340576171875
F0.669308719183918
F1.2219299870335938
F0.0
F0.3296624430098828
F0.0
tp2
a(F-0.349065850399
F0.3267690699175887
F0.48258676479917106
F0.7716747626236928
F-0.349065850399
F0.3125
F0.3415625
F0.7683032739489404
F-0.349065850399
F0.09248535156250001
F0.0801103515625
F1.2245795440673828
F0.116633872059
F0.260625
F0.0
F-0.262973775598
F0.260625
tp3
a(F0.010265755762099999
F0.215
F0.0215
F0.875
F-0.349065850399
F0.4175
F0.04175
F0.44975
F-0.349065850399
F0.41775398486593573
F0.27195072977162854
F0.16279021715130637
F1.0471975512
F1.2217304764
F0.0
F-0.503598775598
F0.02
tp4
a(F-0.349065850399
F0.26359375
F0.19159374999999998
F0.18948366992298027
F-0.349065850399
F0.275
F0.259773507805
F0.027499999999999997
F-0.349065850399
F0.15
F0.015
F0.49750000000000005
F1.0471975512
F1.2217304764
F0.0
F-0.503598775598
F0.02
tp5
a(F-0.3490658503988659
F0.7198122587560136
F0.255051670496411
F0.19598751959677863
F-0.349065850399
F0.689375
F0.0689375
F0.522557384279
F-0.349065850399
F0.02
F1.10057048725
F0.002
F0.889371624441
F0.026875
F0.0
F-0.496723775598
F0.026875
tp6
a.