(lp0
(F-0.349065850399
F0.691057305676
F0.017125
F0.017125
F-0.349065850399
F0.835880357613
F0.083375
F0.083375
F-0.3490658503988659
F0.5916720263563242
F1.3508518285711357
F0.6698898777379174
F-0.6363478199149999
F1.2217304764
F0.0
F0.523598775598
F1.57079632679
tp1
a(F0.289387897717
F0.7991377225600272
F0.42627552313479367
F0.5200046300417319
F-0.349065850399
F0.5827148437499999
F0.9477989471965786
F0.12646484375
F-0.3490658503988659
F0.9469873553859436
F0.2958984375
F0.34575763687558503
F-0.260717848902
F1.2217304764
F0.0
F-0.342348775598
F1.57079632679
tp2
a(F-0.3490658503988659
F0.6892360471451617
F0.7603393858674327
F1.5707963267948966
F-0.3490658503988659
F0.5775000000000003
F1.5707963267948966
F0.8497198814728909
F-0.3490658503988659
F1.027480731558153
F0.8243471185293354
F1.3789642807654783
F-0.6521975511965973
F1.2217304763960306
F0.0
F0.5235987755982988
F1.5707963267948966
tp3
a(F0.28575217173297984
F0.06000000000000001
F1.5707963267948966
F0.006
F-0.3490658503988659
F0.3481250000000002
F1.5707963267948966
F0.034812500000000024
F-0.3490658503988659
F0.6143750000000003
F1.5707963267948966
F0.06143750000000005
F-0.19592950077044868
F1.2217304763960306
F0.0
F-0.39047377559829866
F1.5707963267948966
tp4
a(F-0.06496392293382604
F0.21250000000000005
F1.5707963267948966
F0.9275936946548017
F-0.3490658503988659
F0.5675000000000003
F1.5707963267948966
F0.7793093039508516
F-0.3490658503988659
F0.7850000000000006
F1.5707963267948966
F0.07850000000000006
F-0.6511012517681507
F1.2217304763960306
F0.0
F0.5235987755982988
F0.971095859853371
tp5
a(F-0.349065850399
F1.03375
F0.270268835463
F0.103375
F-0.349065850399
F1.11040181709
F0.0105
F0.0105
F-0.349065850399
F0.8257409667968749
F0.415740966796875
F0.415740966796875
F-0.640938055596
F1.2217304764
F0.0
F0.524
F1.57
tp6
a(F0.0716865065293
F0.6453515624999999
F0.4541015625
F0.47322656250000006
F-0.349065850399
F0.8733059912930363
F0.27195654296875005
F0.20233154296875
F-0.349065850399
F0.8276267242431641
F0.7099381070456134
F0.16937255859375
F-0.545947551197
F1.2217304764
F0.0
F0.524
F1.57
tp7
a(F-0.34906585039900007
F1.0735394191741945
F0.42719024815325146
F0.4590540645203669
F-0.34906585039900007
F0.8446484375000001
F0.11427517809950394
F0.40271729872428264
F-0.34906585039900007
F0.7279428720474244
F0.09855176693376344
F0.5214040927574599
F-0.580050639864
F1.2217304764
F0.0
F0.523598775598
F1.57079632679
tp8
a(F0.0491602140858
F0.2543141516500625
F0.14590588378906252
F0.1425933837890625
F-0.34906585039900007
F0.679375
F0.0679375
F0.0679375
F-0.34906585039900007
F1.030625
F0.1030625
F0.1030625
F0.329492582967
F1.2217304764000003
F0.0
F-0.46047377559800007
F0.708457181487
tp9
a(F0.216175530561
F0.4096875
F0.8083197907185076
F0.2734375
F-0.34906585039899996
F0.86125
F0.08612499999999998
F0.781612530603
F-0.34906585039899996
F1.0386160852802735
F0.43647986893075796
F0.39126714421645925
F-0.40532703833
F1.2217304764
F0.0
F0.523598775598
F0.404979866636
tp10
a(F-0.34906585039899996
F0.31276924009403595
F0.22943497195554619
F0.0
F-0.34906585039899996
F0.05875
F0.549267023172
F0.005875
F-0.34906585039899996
F0.17067977905273435
F0.16955477905273433
F0.47071520840265446
F0.13876657183
F1.2217304764
F0.0
F-0.45109877559799993
F1.57079632679
tp11
a(F0.20206562818400003
F0.4514007568359375
F0.8465597770996327
F0.4532321862897346
F0.0443814536639
F0.9412500000000001
F0.094125
F0.41964286857300004
F-0.349065850399
F1.30875
F0.130875
F0.251875
F-0.321674082037
F1.22172284949
F0.0
F0.478455243871
F0.0975
tp12
a(F0.265020856671
F0.7423828125
F0.9371072528911563
F0.38800781249999994
F-0.349065850399
F0.7202734375
F0.8261454039510718
F0.2802734375
F-0.349065850399
F1.15
F0.11499999999999999
F0.11499999999999999
F-0.468386499946
F1.2217304764
F0.0
F0.523598775598
F1.57079632679
tp13
a(F0.0912749671983
F0.786162005354
F0.001375
F0.11000000000000001
F-0.34906585039900007
F0.779503402709961
F0.22204617309570313
F0.4816850423340311
F-0.34906585039900007
F1.1175
F0.11175000000000002
F0.11175000000000002
F-0.835947551197
F1.2217304764
F0.0
F0.523598775598
F1.525856814
tp14
a(F-0.34906585039899996
F1.19018297666
F0.02075
F0.02075
F-0.2507625458
F1.0419482421875
F0.25428125
F0.16015625
F-0.34906585039899996
F1.12625
F0.112625
F0.423932017362
F-1.0071975512
F1.2217304763999999
F0.0
F0.523598775598
F1.57079632679
tp15
a(F0.16147713972
F0.690637038021
F0.455429421139
F0.121384811509
F-0.349065850399
F1.1234790039062499
F0.298640625
F0.197265625
F-0.349065850399
F1.109321523080483
F0.8222953783771689
F0.11328125
F-0.106568540566
F1.2217304764
F0.0
F-0.337007253384
F1.57079632679
tp16
a(F0.224539196105
F0.872409953904
F0.3681640625
F0.3935390625
F-0.349065850399
F0.93
F0.093
F0.093
F-0.349065850399
F0.771875
F0.552595924922
F0.0771875
F-0.572324673471
F1.2217304764
F0.0
F0.523598775598
F0.849229557808
tp17
a(F0.10022426035627074
F0.3573977128158388
F0.3042388209647109
F0.038239497203759215
F-0.3490658503988659
F0.3712500000000002
F0.037125000000000026
F0.037125000000000026
F-0.3490658503988659
F0.49375000000000024
F0.18186041543951026
F0.04937500000000004
F0.011294132847089963
F1.2217304763960306
F0.0
F0.5235987755982988
F0.15
tp18
a.