(lp0
ccopy_reg
_reconstructor
p1
(cgeometry_msgs.msg._Pose
Pose
p2
c__builtin__
object
p3
Ntp4
Rp5
(lp6
g1
(cgeometry_msgs.msg._Point
Point
p7
g3
Ntp8
Rp9
(lp10
F0.11575629038700001
aF0.00734515186273
aF-0.0533556465545
abag1
(cgeometry_msgs.msg._Quaternion
Quaternion
p11
g3
Ntp12
Rp13
(lp14
F0.14147909647902843
aF0.2833027822810569
aF0.9475938313841902
aF-0.042298103195308495
ababag1
(g2
g3
Ntp15
Rp16
(lp17
g1
(g7
g3
Ntp18
Rp19
(lp20
F0.116832091771
aF0.0322174464287
aF-0.0852943670376
abag1
(g11
g3
Ntp21
Rp22
(lp23
F0.11152040477603206
aF-0.15967472702904592
aF0.9806821486352819
aF0.018157759081905218
ababag1
(g2
g3
Ntp24
Rp25
(lp26
g1
(g7
g3
Ntp27
Rp28
(lp29
F0.110007202089
aF0.07801787928449999
aF-0.06714415485799999
abag1
(g11
g3
Ntp30
Rp31
(lp32
F0.017873136034299037
aF-0.3179116442039828
aF0.9479329128819488
aF0.0059941774217596765
ababag1
(g2
g3
Ntp33
Rp34
(lp35
g1
(g7
g3
Ntp36
Rp37
(lp38
F0.0672961155868
aF0.0576957399825
aF-0.101927553179
abag1
(g11
g3
Ntp39
Rp40
(lp41
F0.3321240234788772
aF-0.20007309554692604
aF0.9189317034066603
aF0.07231122969917327
ababag1
(g2
g3
Ntp42
Rp43
(lp44
g1
(g7
g3
Ntp45
Rp46
(lp47
F0.07454542254390001
aF0.0901331627847
aF-0.0993219211386
abag1
(g11
g3
Ntp48
Rp49
(lp50
F0.24759188595399625
aF-0.4697485045049929
aF0.8358669339739874
aF0.13914405921199788
ababag1
(g2
g3
Ntp51
Rp52
(lp53
g1
(g7
g3
Ntp54
Rp55
(lp56
F0.116212074513
aF0.0155550088218
aF-0.0500141561862
abag1
(g11
g3
Ntp57
Rp58
(lp59
F-0.0513474454755813
aF-0.02440775849549111
aF0.9983817533246364
aF-0.0012553074456295428
ababag1
(g2
g3
Ntp60
Rp61
(lp62
g1
(g7
g3
Ntp63
Rp64
(lp65
F0.08477523088215963
aF0.05087799178592435
aF-0.09696664914176374
abag1
(g11
g3
Ntp66
Rp67
(lp68
F0.1828513842987424
aF-0.3453658961178746
aF0.9179076977205145
aF0.06879845582682673
ababag1
(g2
g3
Ntp69
Rp70
(lp71
g1
(g7
g3
Ntp72
Rp73
(lp74
F0.115756628151
aF0.0735850116187
aF-0.0743900294531
abag1
(g11
g3
Ntp75
Rp76
(lp77
F0.08647515220039222
aF-0.41807586986496237
aF0.9034008506019187
aF0.0400189732539964
ababag1
(g2
g3
Ntp78
Rp79
(lp80
g1
(g7
g3
Ntp81
Rp82
(lp83
F0.11891328169133707
aF0.052475101333451596
aF-0.0639976969981787
abag1
(g11
g3
Ntp84
Rp85
(lp86
F0.07595532553729845
aF-0.28463572997051956
aF0.9553539531029909
aF0.022629936746728162
ababag1
(g2
g3
Ntp87
Rp88
(lp89
g1
(g7
g3
Ntp90
Rp91
(lp92
F0.0941131706644
aF0.0211684467752
aF-0.0971428249867
abag1
(g11
g3
Ntp93
Rp94
(lp95
F0.23855903038007184
aF0.11613271091003498
aF0.9637304517682902
aF-0.028747153168508656
ababag1
(g2
g3
Ntp96
Rp97
(lp98
g1
(g7
g3
Ntp99
Rp100
(lp101
F0.11635529638299999
aF0.00162806024026
aF-0.056312393056
abag1
(g11
g3
Ntp102
Rp103
(lp104
F0.14238040951808503
aF0.26432190924515786
aF0.9530490141675693
aF-0.039488275129223586
ababag1
(g2
g3
Ntp105
Rp106
(lp107
g1
(g7
g3
Ntp108
Rp109
(lp110
F0.0948887776166
aF0.048708835192899994
aF-0.095952885182
abag1
(g11
g3
Ntp111
Rp112
(lp113
F0.2154166242089436
aF-0.3653802935269044
aF0.9013699978297641
aF0.08732151011627715
ababag1
(g2
g3
Ntp114
Rp115
(lp116
g1
(g7
g3
Ntp117
Rp118
(lp119
F0.109214137386
aF0.00550699045637
aF-0.0822200141836
abag1
(g11
g3
Ntp120
Rp121
(lp122
F0.13867415287203308
aF0.0942981560547225
aF0.9857491346962352
aF-0.013265765546203167
ababag1
(g2
g3
Ntp123
Rp124
(lp125
g1
(g7
g3
Ntp126
Rp127
(lp128
F0.14353834318099998
aF0.005784310481250001
aF-0.0159825379235
abag1
(g11
g3
Ntp129
Rp130
(lp131
F-0.1502809116840295
aF0.2013901062690395
aF0.9674083624221897
aF0.031284708660606134
ababag1
(g2
g3
Ntp132
Rp133
(lp134
g1
(g7
g3
Ntp135
Rp136
(lp137
F0.10696560530799999
aF0.058167712122799996
aF-0.0976280295796
abag1
(g11
g3
Ntp138
Rp139
(lp140
F0.20890968891397976
aF-0.34740120235296634
aF0.9106689316419119
aF0.07969468880519229
ababag1
(g2
g3
Ntp141
Rp142
(lp143
g1
(g7
g3
Ntp144
Rp145
(lp146
F0.0915867321306
aF0.024130055134999998
aF-0.108509607145
abag1
(g11
g3
Ntp147
Rp148
(lp149
F0.3026463396861446
aF-0.00864545954052413
aF0.9530597630584554
aF0.0027453857420813117
ababag1
(g2
g3
Ntp150
Rp151
(lp152
g1
(g7
g3
Ntp153
Rp154
(lp155
F0.112862174981
aF0.00122281867738
aF-0.0701043480588
abag1
(g11
g3
Ntp156
Rp157
(lp158
F0.13268201419504944
aF0.16771548022806249
aF0.9766001219513638
aF-0.02278601776520849
ababag1
(g2
g3
Ntp159
Rp160
(lp161
g1
(g7
g3
Ntp162
Rp163
(lp164
F0.117580334977
aF0.0622436190844
aF-0.0505382501339
abag1
(g11
g3
Ntp165
Rp166
(lp167
F-0.053738224369008415
aF-0.18613871560802916
aF0.9809998028491537
aF-0.010196499565101597
ababag1
(g2
g3
Ntp168
Rp169
(lp170
g1
(g7
g3
Ntp171
Rp172
(lp173
F0.109883265753
aF0.043887461814300005
aF-0.036428285128
abag1
(g11
g3
Ntp174
Rp175
(lp176
F0.09438395195531596
aF0.021151844190203578
aF0.9953091207521683
aF-0.002005803628430339
ababag1
(g2
g3
Ntp177
Rp178
(lp179
g1
(g7
g3
Ntp180
Rp181
(lp182
F0.102718008811
aF0.08802503581519999
aF-0.076144291711
abag1
(g11
g3
Ntp183
Rp184
(lp185
F0.08167099992249706
aF-0.41473541096498506
aF0.9054971614219673
aF0.037406915405098655
ababag1
(g2
g3
Ntp186
Rp187
(lp188
g1
(g7
g3
Ntp189
Rp190
(lp191
F0.128203447582
aF0.0286734069465
aF-0.0262814928509
abag1
(g11
g3
Ntp192
Rp193
(lp194
F-0.1539477178580773
aF0.009508830441614775
aF0.9880321286214961
aF0.001481594275720744
ababag1
(g2
g3
Ntp195
Rp196
(lp197
g1
(g7
g3
Ntp198
Rp199
(lp200
F0.0956243933265
aF0.0731422904419
aF-0.0906937815721
abag1
(g11
g3
Ntp201
Rp202
(lp203
F0.16476368336390546
aF-0.414766526540762
aF0.8915979295594884
aF0.07664717288265602
ababa.