(lp0
ccopy_reg
_reconstructor
p1
(cgeometry_msgs.msg._Pose
Pose
p2
c__builtin__
object
p3
Ntp4
Rp5
(lp6
g1
(cgeometry_msgs.msg._Point
Point
p7
g3
Ntp8
Rp9
(lp10
F0.061481781198781754
aF-0.01235117137380587
aF-0.08936085129260829
abag1
(cgeometry_msgs.msg._Quaternion
Quaternion
p11
g3
Ntp12
Rp13
(lp14
F0.015336581678040145
aF-0.24013398597677413
aF0.9706111790933516
aF0.0037943458399544512
ababag1
(g2
g3
Ntp15
Rp16
(lp17
g1
(g7
g3
Ntp18
Rp19
(lp20
F0.047362883015900005
aF-0.0111592090675
aF-0.107992109664
abag1
(g11
g3
Ntp21
Rp22
(lp23
F0.20639538376488034
aF-0.2849126389578348
aF0.9339493241764586
aF0.0629634306003635
ababag1
(g2
g3
Ntp24
Rp25
(lp26
g1
(g7
g3
Ntp27
Rp28
(lp29
F0.0592154827806
aF4.9162351199e-05
aF-0.10703573183199999
abag1
(g11
g3
Ntp30
Rp31
(lp32
F0.07122846370587306
aF-0.2446045349219075
aF0.9668352449466344
aF0.018020449015493187
ababag1
(g2
g3
Ntp33
Rp34
(lp35
g1
(g7
g3
Ntp36
Rp37
(lp38
F0.0603387733295
aF-0.0242278408713
aF-0.0801449694169
abag1
(g11
g3
Ntp39
Rp40
(lp41
F0.16868252426307387
aF-0.06863968884693006
aF0.9832070602264306
aF0.011776070827505158
ababag1
(g2
g3
Ntp42
Rp43
(lp44
g1
(g7
g3
Ntp45
Rp46
(lp47
F0.00947029745413
aF-0.0072148182045
aF-0.13986925930199998
abag1
(g11
g3
Ntp48
Rp49
(lp50
F0.4302105910609976
aF-0.14810434188299917
aF0.8875983868659951
aF0.07178478172449959
ababag1
(g2
g3
Ntp51
Rp52
(lp53
g1
(g7
g3
Ntp54
Rp55
(lp56
F0.00441602566738
aF-0.00493502556018
aF-0.145482113085
abag1
(g11
g3
Ntp57
Rp58
(lp59
F0.41726393622510993
aF-0.13370401101903523
aF0.8967404619592362
aF0.06221405667921638
ababag1
(g2
g3
Ntp60
Rp61
(lp62
g1
(g7
g3
Ntp63
Rp64
(lp65
F0.0700751942508
aF0.011568930589000001
aF-0.0917805402081
abag1
(g11
g3
Ntp66
Rp67
(lp68
F0.019803031256897134
aF-0.3082263796139554
aF0.9510852493298624
aF0.00641773871901907
ababag1
(g2
g3
Ntp69
Rp70
(lp71
g1
(g7
g3
Ntp72
Rp73
(lp74
F0.0750736402125
aF-0.0382125399887
aF-0.0769819086405
abag1
(g11
g3
Ntp75
Rp76
(lp77
F0.18500157792597904
aF0.1278278965259855
aF0.9740867771828896
aF-0.024277470051297254
ababag1
(g2
g3
Ntp78
Rp79
(lp80
g1
(g7
g3
Ntp81
Rp82
(lp83
F0.0601059394521
aF-0.0312755193862
aF-0.121738307011
abag1
(g11
g3
Ntp84
Rp85
(lp86
F0.16072089374294335
aF-0.06691115820787642
aF0.984668681790653
aF0.01092146155089615
ababag1
(g2
g3
Ntp87
Rp88
(lp89
g1
(g7
g3
Ntp90
Rp91
(lp92
F0.09885568229521677
aF-0.004394212720885424
aF-0.042387607695518636
abag1
(g11
g3
Ntp93
Rp94
(lp95
F-0.20221329725381837
aF-0.26629529834475957
aF0.9407017873572927
aF-0.05724284895084467
ababag1
(g2
g3
Ntp96
Rp97
(lp98
g1
(g7
g3
Ntp99
Rp100
(lp101
F0.0740428235835839
aF-0.023936956626453176
aF-0.10634831504217425
abag1
(g11
g3
Ntp102
Rp103
(lp104
F0.14546843318837424
aF-0.06849524374811623
aF0.986937390060026
aF0.010095772932757412
ababag1
(g2
g3
Ntp105
Rp106
(lp107
g1
(g7
g3
Ntp108
Rp109
(lp110
F0.04337247934457663
aF-0.008646890313363905
aF-0.13871606775688483
abag1
(g11
g3
Ntp111
Rp112
(lp113
F0.293438235626853
aF-0.20563183710266522
aF0.9313495956120473
aF0.06478796335167916
ababag1
(g2
g3
Ntp114
Rp115
(lp116
g1
(g7
g3
Ntp117
Rp118
(lp119
F0.0422962841628
aF-0.010292131840399999
aF-0.138972579081
abag1
(g11
g3
Ntp120
Rp121
(lp122
F0.31947727911103013
aF-0.24314420321402294
aF0.911898498669086
aF0.08518387582340803
ababag1
(g2
g3
Ntp123
Rp124
(lp125
g1
(g7
g3
Ntp126
Rp127
(lp128
F0.028316513186566326
aF0.018905604849287543
aF-0.1444761981059427
abag1
(g11
g3
Ntp129
Rp130
(lp131
F0.3492326718722977
aF-0.44722944966901523
aF0.7999375775145532
aF0.19524915448173952
ababag1
(g2
g3
Ntp132
Rp133
(lp134
g1
(g7
g3
Ntp135
Rp136
(lp137
F0.10154638776199999
aF-0.0100534876991
aF-0.0565414024678
abag1
(g11
g3
Ntp138
Rp139
(lp140
F-0.15093134288593502
aF-0.23830157876889738
aF0.9586576378525871
aF-0.03751827125278385
ababag1
(g2
g3
Ntp141
Rp142
(lp143
g1
(g7
g3
Ntp144
Rp145
(lp146
F0.100326568288
aF-0.0316693421353
aF-0.06809791678579999
abag1
(g11
g3
Ntp147
Rp148
(lp149
F-0.11225689524498196
aF-0.009605983937568455
aF0.9936321939118402
aF-0.0010852485851498255
ababag1
(g2
g3
Ntp150
Rp151
(lp152
g1
(g7
g3
Ntp153
Rp154
(lp155
F0.0922147152432
aF-0.000690951406974
aF-0.0627401900732
abag1
(g11
g3
Ntp156
Rp157
(lp158
F-0.12469098600495661
aF-0.25911609164990984
aF0.9571685294186668
aF-0.033755226968488254
ababag1
(g2
g3
Ntp159
Rp160
(lp161
g1
(g7
g3
Ntp162
Rp163
(lp164
F0.07603727990834402
aF-0.02525534223821712
aF-0.07952183145792001
abag1
(g11
g3
Ntp165
Rp166
(lp167
F0.2093856669837208
aF0.05160397906365073
aF0.9764078096827385
aF-0.011066209700603844
ababag1
(g2
g3
Ntp168
Rp169
(lp170
g1
(g7
g3
Ntp171
Rp172
(lp173
F0.07700605212799999
aF-0.0105748212303
aF-0.0869392388535
abag1
(g11
g3
Ntp174
Rp175
(lp176
F0.08134299229378303
aF-0.29011979390393944
aF0.953205579764801
aF0.024757736065294834
ababag1
(g2
g3
Ntp177
Rp178
(lp179
g1
(g7
g3
Ntp180
Rp181
(lp182
F0.057458856002499996
aF-0.0094856337564
aF-0.112700987886
abag1
(g11
g3
Ntp183
Rp184
(lp185
F0.2580908031520346
aF-0.23341735608203126
aF0.9352842669471252
aF0.06441129721710862
ababag1
(g2
g3
Ntp186
Rp187
(lp188
g1
(g7
g3
Ntp189
Rp190
(lp191
F0.07583184958173513
aF0.025281038891303044
aF-0.09870245846151644
abag1
(g11
g3
Ntp192
Rp193
(lp194
F0.06620814866827165
aF-0.4520155685150228
aF0.888912218348042
aF0.03366711959054025
ababag1
(g2
g3
Ntp195
Rp196
(lp197
g1
(g7
g3
Ntp198
Rp199
(lp200
F0.0835456842973
aF0.00108035115206
aF-0.09082798256249999
abag1
(g11
g3
Ntp201
Rp202
(lp203
F-0.0033412480540616694
aF-0.20590152942610288
aF0.9785667590824889
aF-0.0007030364337823513
ababag1
(g2
g3
Ntp204
Rp205
(lp206
g1
(g7
g3
Ntp207
Rp208
(lp209
F0.07902884292651147
aF-0.00029751706539800436
aF-0.08893747048015443
abag1
(g11
g3
Ntp210
Rp211
(lp212
F0.025004995194229898
aF-0.19419753218714397
aF0.9806311988687543
aF0.004951819159611243
ababag1
(g2
g3
Ntp213
Rp214
(lp215
g1
(g7
g3
Ntp216
Rp217
(lp218
F0.0500287046988
aF-0.030796871007
aF-0.120937649788
abag1
(g11
g3
Ntp219
Rp220
(lp221
F0.30185412993198557
aF0.02472828204759882
aF0.9530011799769544
aF-0.007832449968609625
ababag1
(g2
g3
Ntp222
Rp223
(lp224
g1
(g7
g3
Ntp225
Rp226
(lp227
F0.0726285546152
aF-0.016593942201099998
aF-0.106257672911
abag1
(g11
g3
Ntp228
Rp229
(lp230
F0.09547975588565248
aF-0.14372926960592847
aF0.98490170464151
aF0.013933609324593066
ababa.