(lp0
ccopy_reg
_reconstructor
p1
(cgeometry_msgs.msg._Pose
Pose
p2
c__builtin__
object
p3
Ntp4
Rp5
(lp6
g1
(cgeometry_msgs.msg._Point
Point
p7
g3
Ntp8
Rp9
(lp10
F0.0704578664717
aF-0.0576133769181
aF0.00206110089002
abag1
(cgeometry_msgs.msg._Quaternion
Quaternion
p11
g3
Ntp12
Rp13
(lp14
F-0.2605609506390035
aF0.1789726488850024
aF0.9474461331000127
aF0.04921998402090066
ababag1
(g2
g3
Ntp15
Rp16
(lp17
g1
(g7
g3
Ntp18
Rp19
(lp20
F0.0746021268922
aF-0.0370723411647
aF-0.023378171825799998
abag1
(g11
g3
Ntp21
Rp22
(lp23
F-0.16366701983493637
aF-0.09664500157426242
aF0.9816380219936182
aF-0.016113474656893733
ababag1
(g2
g3
Ntp24
Rp25
(lp26
g1
(g7
g3
Ntp27
Rp28
(lp29
F0.0468815123591
aF-0.0251425799688
aF-0.10555733762200001
abag1
(g11
g3
Ntp30
Rp31
(lp32
F0.24625505936894354
aF-0.2338374599749464
aF0.9385703790257849
aF0.06135251961458593
ababag1
(g2
g3
Ntp33
Rp34
(lp35
g1
(g7
g3
Ntp36
Rp37
(lp38
F0.0714879075904
aF-0.0411459695392
aF-0.0792379250115
abag1
(g11
g3
Ntp39
Rp40
(lp41
F0.07698999689376267
aF-0.028160509916186346
aF0.9966317241955167
aF0.0021754049347889447
ababag1
(g2
g3
Ntp42
Rp43
(lp44
g1
(g7
g3
Ntp45
Rp46
(lp47
F0.0804176598104
aF-0.06757281287799999
aF-0.0023973807910399997
abag1
(g11
g3
Ntp48
Rp49
(lp50
F-0.2058366525491231
aF0.31026101163018555
aF0.9255312874375534
aF0.06900154421294126
ababag1
(g2
g3
Ntp51
Rp52
(lp53
g1
(g7
g3
Ntp54
Rp55
(lp56
F0.0342532148615
aF-0.0194065480141
aF-0.1192788536
abag1
(g11
g3
Ntp57
Rp58
(lp59
F0.2830686312580314
aF-0.23310253834202585
aF0.9276181816391028
aF0.07113273303320788
ababag1
(g2
g3
Ntp60
Rp61
(lp62
g1
(g7
g3
Ntp63
Rp64
(lp65
F0.0861416297146298
aF-0.05749058761125187
aF-0.03284393048628437
abag1
(g11
g3
Ntp66
Rp67
(lp68
F-0.1352840895193551
aF0.15618745154900734
aF0.9781805006707608
aF0.021601000186230193
ababag1
(g2
g3
Ntp69
Rp70
(lp71
g1
(g7
g3
Ntp72
Rp73
(lp74
F0.0717817973045
aF-0.0602570200615
aF-0.0175814856198
abag1
(g11
g3
Ntp75
Rp76
(lp77
F-0.19222443364998484
aF0.20961767247398347
aF0.9577788491839244
aF0.042069876995896684
ababag1
(g2
g3
Ntp78
Rp79
(lp80
g1
(g7
g3
Ntp81
Rp82
(lp83
F0.0684812315402
aF-0.048225713521199996
aF-0.048201595202699996
abag1
(g11
g3
Ntp84
Rp85
(lp86
F-0.05132710852220899
aF0.08978858980811573
aF0.9946265972091742
aF0.004633486281260811
ababag1
(g2
g3
Ntp87
Rp88
(lp89
g1
(g7
g3
Ntp90
Rp91
(lp92
F0.06568421415
aF-0.0579927313666
aF-0.00378480726226
abag1
(g11
g3
Ntp93
Rp94
(lp95
F-0.18223388070596824
aF0.27451005577495213
aF0.9426658313728357
aF0.05306762066869075
ababag1
(g2
g3
Ntp96
Rp97
(lp98
g1
(g7
g3
Ntp99
Rp100
(lp101
F0.0538131906406
aF0.019380619866699998
aF-0.07974218554290001
abag1
(g11
g3
Ntp102
Rp103
(lp104
F0.03774430514968579
aF-0.33376437401287434
aF0.9418056006906453
aF0.013376119627694963
ababag1
(g2
g3
Ntp105
Rp106
(lp107
g1
(g7
g3
Ntp108
Rp109
(lp110
F0.0584784545181
aF-0.00932339381595
aF-0.0676689223261
abag1
(g11
g3
Ntp111
Rp112
(lp113
F-0.00380640078540105
aF-0.06605090768991823
aF0.9978089623862753
aF-0.0002519682989280695
ababag1
(g2
g3
Ntp114
Rp115
(lp116
g1
(g7
g3
Ntp117
Rp118
(lp119
F0.06334568954
aF-0.009258239369309999
aF-0.0395817741806
abag1
(g11
g3
Ntp120
Rp121
(lp122
F-0.09457879383871665
aF-0.0842167402838148
aF0.9919162822671744
aF-0.008030030214711412
ababag1
(g2
g3
Ntp123
Rp124
(lp125
g1
(g7
g3
Ntp126
Rp127
(lp128
F0.06437303061180001
aF-0.0174020433027
aF-0.0777918452823
abag1
(g11
g3
Ntp129
Rp130
(lp131
F0.028727341700606857
aF-0.2250572538060537
aF0.9738993283532325
aF0.006638567708231585
ababag1
(g2
g3
Ntp132
Rp133
(lp134
g1
(g7
g3
Ntp135
Rp136
(lp137
F0.06934672803940001
aF-0.06335843540740001
aF-0.046352827482
abag1
(g11
g3
Ntp138
Rp139
(lp140
F-0.03205072362520973
aF0.2819569578920856
aF0.958845242027291
aF0.009424799890012861
ababag1
(g2
g3
Ntp141
Rp142
(lp143
g1
(g7
g3
Ntp144
Rp145
(lp146
F0.052965715212
aF-0.024231767334600002
aF-0.11187774785099999
abag1
(g11
g3
Ntp147
Rp148
(lp149
F0.2251986145260402
aF-0.21939767432703913
aF0.947857119460169
aF0.0521260549448093
ababag1
(g2
g3
Ntp150
Rp151
(lp152
g1
(g7
g3
Ntp153
Rp154
(lp155
F0.08987619853920001
aF-0.065653172599
aF-0.0311744547243
abag1
(g11
g3
Ntp156
Rp157
(lp158
F-0.09201304751825495
aF0.2526661208868763
aF0.9628657435325286
aF0.02414519359898818
ababa.