(lp0
ccopy_reg
_reconstructor
p1
(cgeometry_msgs.msg._Pose
Pose
p2
c__builtin__
object
p3
Ntp4
Rp5
(lp6
g1
(cgeometry_msgs.msg._Point
Point
p7
g3
Ntp8
Rp9
(lp10
F0.087051099815
aF0.00939612557746
aF-0.09080460377340001
abag1
(cgeometry_msgs.msg._Quaternion
Quaternion
p11
g3
Ntp12
Rp13
(lp14
F0.19971884026096612
aF-0.20606997206896505
aF0.9569733507698377
aF0.043006480589092705
ababag1
(g2
g3
Ntp15
Rp16
(lp17
g1
(g7
g3
Ntp18
Rp19
(lp20
F0.07690929170840001
aF0.033087147160199996
aF-0.103322603308
abag1
(g11
g3
Ntp21
Rp22
(lp23
F0.2068934148028709
aF-0.3133724375308045
aF0.9241596533064234
aF0.07015529565015623
ababa.