(lp0
ccopy_reg
_reconstructor
p1
(cgeometry_msgs.msg._Pose
Pose
p2
c__builtin__
object
p3
Ntp4
Rp5
(lp6
g1
(cgeometry_msgs.msg._Point
Point
p7
g3
Ntp8
Rp9
(lp10
F0.0887222778007
aF0.0194311732706
aF-0.0771877684062
abag1
(cgeometry_msgs.msg._Quaternion
Quaternion
p11
g3
Ntp12
Rp13
(lp14
F0.23674642697492584
aF-0.04013700811698743
aF0.970692701988696
aF0.009789187908496933
ababag1
(g2
g3
Ntp15
Rp16
(lp17
g1
(g7
g3
Ntp18
Rp19
(lp20
F0.0121310393284
aF0.015260495284799998
aF-0.136919006308
abag1
(g11
g3
Ntp21
Rp22
(lp23
F0.41187378442185796
aF0.0313074595634892
aF0.910592829127686
aF-0.014160798809895117
ababag1
(g2
g3
Ntp24
Rp25
(lp26
g1
(g7
g3
Ntp27
Rp28
(lp29
F0.11986183751900001
aF0.0306808708457
aF-0.07598640553120001
abag1
(g11
g3
Ntp30
Rp31
(lp32
F0.041690432203690724
aF-0.056107840637987516
aF0.997551161351778
aF0.0023449024138694785
ababag1
(g2
g3
Ntp33
Rp34
(lp35
g1
(g7
g3
Ntp36
Rp37
(lp38
F0.104691433841
aF0.025565427220899998
aF0.0266028830937
abag1
(g11
g3
Ntp39
Rp40
(lp41
F-0.26454929878587113
aF-0.05825732760967164
aF0.9624777106285314
aF-0.016012770995192206
ababag1
(g2
g3
Ntp42
Rp43
(lp44
g1
(g7
g3
Ntp45
Rp46
(lp47
F0.0696824967517
aF0.016906679634100003
aF-0.0973806106679
abag1
(g11
g3
Ntp48
Rp49
(lp50
F0.24762684408091132
aF-0.24335854112491284
aF0.935579349898665
aF0.06441154085467693
ababag1
(g2
g3
Ntp51
Rp52
(lp53
g1
(g7
g3
Ntp54
Rp55
(lp56
F0.0897349569949
aF0.00713696819403
aF-0.08450187132
abag1
(g11
g3
Ntp57
Rp58
(lp59
F0.020784124575604936
aF0.025099728784305966
aF0.9994687345512375
aF-0.000521953185560124
ababag1
(g2
g3
Ntp60
Rp61
(lp62
g1
(g7
g3
Ntp63
Rp64
(lp65
F0.0141612587537
aF0.00794721431796
aF-0.135576541283
abag1
(g11
g3
Ntp66
Rp67
(lp68
F0.48569126904288784
aF0.12049629095897217
aF0.8631263883758007
aF-0.06780466598978435
ababag1
(g2
g3
Ntp69
Rp70
(lp71
g1
(g7
g3
Ntp72
Rp73
(lp74
F0.05719425383818171
aF0.008032323649576668
aF-0.1078859966404249
abag1
(g11
g3
Ntp75
Rp76
(lp77
F0.3796972485696499
aF0.37959035798399016
aF0.8253775972231254
aF-0.17462239706407592
ababag1
(g2
g3
Ntp78
Rp79
(lp80
g1
(g7
g3
Ntp81
Rp82
(lp83
F0.09219120846920001
aF0.0176884256459
aF-0.0498585600944
abag1
(g11
g3
Ntp84
Rp85
(lp86
F0.11452876535401403
aF-0.06400884152690785
aF0.9913280709981214
aF0.007394982353740906
ababag1
(g2
g3
Ntp87
Rp88
(lp89
g1
(g7
g3
Ntp90
Rp91
(lp92
F0.0739965626516
aF0.011926299114500001
aF-0.0773605485163
abag1
(g11
g3
Ntp93
Rp94
(lp95
F0.29014881819386534
aF0.026969862093287486
aF0.9565664471745561
aF-0.008180585505926204
ababa.