(lp0
ccopy_reg
_reconstructor
p1
(cgeometry_msgs.msg._Pose
Pose
p2
c__builtin__
object
p3
Ntp4
Rp5
(lp6
g1
(cgeometry_msgs.msg._Point
Point
p7
g3
Ntp8
Rp9
(lp10
F0.0958751739578
aF-0.0036685438139
aF-0.093485516731
abag1
(cgeometry_msgs.msg._Quaternion
Quaternion
p11
g3
Ntp12
Rp13
(lp14
F0.1465773858169727
aF0.2513148977379532
aF0.9559660204048219
aF-0.03853388085039282
ababag1
(g2
g3
Ntp15
Rp16
(lp17
g1
(g7
g3
Ntp18
Rp19
(lp20
F0.119644361297
aF0.0112647266867
aF-0.0450075329732
abag1
(g11
g3
Ntp21
Rp22
(lp23
F-0.15505843602199945
aF0.06936894593179975
aF0.9854063536399964
aF0.010915537762699962
ababag1
(g2
g3
Ntp24
Rp25
(lp26
g1
(g7
g3
Ntp27
Rp28
(lp29
F0.12122027887900001
aF0.057888483336900005
aF-0.045204670713
abag1
(g11
g3
Ntp30
Rp31
(lp32
F-0.15789258918998814
aF-0.3678690545279724
aF0.9141691893179313
aF-0.06353725128909522
ababag1
(g2
g3
Ntp33
Rp34
(lp35
g1
(g7
g3
Ntp36
Rp37
(lp38
F0.10340675361696534
aF0.023627790278602984
aF-0.04396403048752874
abag1
(g11
g3
Ntp39
Rp40
(lp41
F-0.06599769744924586
aF-0.06547983913663347
aF0.9956595080103083
aF-0.0043403579010668
ababag1
(g2
g3
Ntp42
Rp43
(lp44
g1
(g7
g3
Ntp45
Rp46
(lp47
F0.10421284497682792
aF-0.0007773345162784438
aF-0.03221409436454567
abag1
(g11
g3
Ntp48
Rp49
(lp50
F-0.11966815078883387
aF0.2872307793686108
aF0.9496673093607058
aF0.03619412385566466
ababag1
(g2
g3
Ntp51
Rp52
(lp53
g1
(g7
g3
Ntp54
Rp55
(lp56
F0.0918883465895
aF0.021998328626999998
aF-0.0963491033297
abag1
(g11
g3
Ntp57
Rp58
(lp59
F0.07942221444926162
aF-0.015822246347592352
aF0.9967146927815181
aF0.0012607798917693904
ababag1
(g2
g3
Ntp60
Rp61
(lp62
g1
(g7
g3
Ntp63
Rp64
(lp65
F0.0694484516258
aF0.00196574471124
aF-0.112629084346
abag1
(g11
g3
Ntp66
Rp67
(lp68
F0.2571958371379712
aF0.21138503539597636
aF0.9411853697138947
aF-0.05776476439889353
ababag1
(g2
g3
Ntp69
Rp70
(lp71
g1
(g7
g3
Ntp72
Rp73
(lp74
F0.11574278814500001
aF0.0356803434734
aF-0.055391449829199996
abag1
(g11
g3
Ntp75
Rp76
(lp77
F-0.13551104182806017
aF-0.12127395140005384
aF0.9831836011034365
aF-0.01671504638850742
ababag1
(g2
g3
Ntp78
Rp79
(lp80
g1
(g7
g3
Ntp81
Rp82
(lp83
F0.09551417816629999
aF0.00739407439208
aF-0.0901351388737
abag1
(g11
g3
Ntp84
Rp85
(lp86
F0.09865943436837785
aF0.17569124442496056
aF0.9793291743397802
aF-0.017699461276696027
ababag1
(g2
g3
Ntp87
Rp88
(lp89
g1
(g7
g3
Ntp90
Rp91
(lp92
F0.109241589821
aF0.018122456071
aF-0.038238682863
abag1
(g11
g3
Ntp93
Rp94
(lp95
F-0.11074677933002583
aF0.08098386083201889
aF0.990502285483231
aF0.009054700727392112
ababag1
(g2
g3
Ntp96
Rp97
(lp98
g1
(g7
g3
Ntp99
Rp100
(lp101
F0.0822496329282
aF0.0340023691601
aF-0.111664067034
abag1
(g11
g3
Ntp102
Rp103
(lp104
F0.1769400627589785
aF-0.11527603901698598
aF0.9772246390148812
aF0.020872324298897463
ababag1
(g2
g3
Ntp105
Rp106
(lp107
g1
(g7
g3
Ntp108
Rp109
(lp110
F0.07650360347820001
aF-0.000670134209725
aF-0.112086081719
abag1
(g11
g3
Ntp111
Rp112
(lp113
F0.21255591793310044
aF0.1254568660270593
aF0.9686705873954579
aF-0.02752906887681301
ababag1
(g2
g3
Ntp114
Rp115
(lp116
g1
(g7
g3
Ntp117
Rp118
(lp119
F0.107378925822
aF0.016203130667700003
aF-0.038603288640599996
abag1
(g11
g3
Ntp120
Rp121
(lp122
F-0.11132159855698674
aF-0.09031109327348924
aF0.9896202313848822
aF-0.01015902358479879
ababag1
(g2
g3
Ntp123
Rp124
(lp125
g1
(g7
g3
Ntp126
Rp127
(lp128
F0.0573631592965
aF0.0274860355308
aF-0.130564797239
abag1
(g11
g3
Ntp129
Rp130
(lp131
F0.28909063724095263
aF-0.15647606537297434
aF0.9432082133438454
aF0.04795946940619214
ababag1
(g2
g3
Ntp132
Rp133
(lp134
g1
(g7
g3
Ntp135
Rp136
(lp137
F0.101167949775
aF-0.0128994739136
aF-0.0599260620887
abag1
(g11
g3
Ntp138
Rp139
(lp140
F-0.06505138341378298
aF0.1230777954989678
aF0.990229670550741
aF0.008085377668267885
ababag1
(g2
g3
Ntp141
Rp142
(lp143
g1
(g7
g3
Ntp144
Rp145
(lp146
F0.11198181871
aF-0.0086315113082
aF-0.0242011065957
abag1
(g11
g3
Ntp147
Rp148
(lp149
F-0.21300733294092047
aF0.14023084793994764
aF0.9664408499366393
aF0.030907425858288463
ababag1
(g2
g3
Ntp150
Rp151
(lp152
g1
(g7
g3
Ntp153
Rp154
(lp155
F0.0546947604343
aF-0.0100186248561
aF-0.12856913054699998
abag1
(g11
g3
Ntp156
Rp157
(lp158
F0.3400830024329977
aF0.13616631049799907
aF0.9291492688779938
aF-0.049838975561399664
ababag1
(g2
g3
Ntp159
Rp160
(lp161
g1
(g7
g3
Ntp162
Rp163
(lp164
F0.12261373970418159
aF0.024488873715626504
aF-0.04343387658807188
abag1
(g11
g3
Ntp165
Rp166
(lp167
F-0.1744514707061161
aF-0.25168167888680165
aF0.9508368711165257
aF-0.04617641612911986
ababag1
(g2
g3
Ntp168
Rp169
(lp170
g1
(g7
g3
Ntp171
Rp172
(lp173
F0.112591785124
aF-0.00594236646864
aF-0.0335019243848
abag1
(g11
g3
Ntp174
Rp175
(lp176
F-0.07205785083633406
aF0.12646895825005983
aF0.9893070380414677
aF0.009211580407904357
ababag1
(g2
g3
Ntp177
Rp178
(lp179
g1
(g7
g3
Ntp180
Rp181
(lp182
F0.11554676809100001
aF-0.016838128493
aF-0.028605911377399998
abag1
(g11
g3
Ntp183
Rp184
(lp185
F-0.15587241259194315
aF0.21239313461392256
aF0.9640610380566486
aF0.03434038821528748
ababag1
(g2
g3
Ntp186
Rp187
(lp188
g1
(g7
g3
Ntp189
Rp190
(lp191
F0.0588133787553
aF0.0035678095333
aF-0.131119554794
abag1
(g11
g3
Ntp192
Rp193
(lp194
F0.3404639577220523
aF-0.048766127845807486
aF0.9388255428071441
aF0.017684977807002716
ababag1
(g2
g3
Ntp195
Rp196
(lp197
g1
(g7
g3
Ntp198
Rp199
(lp200
F0.09653968029559999
aF0.0065883553499399995
aF-0.0473142040042
abag1
(g11
g3
Ntp201
Rp202
(lp203
F-0.16137204233798896
aF-0.015715325768298923
aF0.9867651632699325
aF-0.0025700281177698245
ababag1
(g2
g3
Ntp204
Rp205
(lp206
g1
(g7
g3
Ntp207
Rp208
(lp209
F0.108596735101
aF-0.0116032479722
aF-0.0522423534387
abag1
(g11
g3
Ntp210
Rp211
(lp212
F-0.06512673393091956
aF0.2248638820200675
aF0.9720945362662918
aF0.015065047347404522
ababag1
(g2
g3
Ntp213
Rp214
(lp215
g1
(g7
g3
Ntp216
Rp217
(lp218
F0.107092370687
aF0.0026490386477
aF-0.0285703756761
abag1
(g11
g3
Ntp219
Rp220
(lp221
F-0.11937388158103063
aF0.09739019057632499
aF0.9879911746792535
aF0.01176715478330302
ababag1
(g2
g3
Ntp222
Rp223
(lp224
g1
(g7
g3
Ntp225
Rp226
(lp227
F0.02709999542072002
aF0.008192970338827973
aF-0.13781907921359743
abag1
(g11
g3
Ntp228
Rp229
(lp230
F0.46833103573755075
aF-0.010515883681883583
aF0.8834729096971325
aF0.005574494296741345
ababa.