(lp0
ccopy_reg
_reconstructor
p1
(cgeometry_msgs.msg._Pose
Pose
p2
c__builtin__
object
p3
Ntp4
Rp5
(lp6
g1
(cgeometry_msgs.msg._Point
Point
p7
g3
Ntp8
Rp9
(lp10
F0.07106647927666102
aF0.029158052570075022
aF-0.05639313686316241
abag1
(cgeometry_msgs.msg._Quaternion
Quaternion
p11
g3
Ntp12
Rp13
(lp14
F-0.11256540688071141
aF0.30758347240528655
aF0.9441274194503706
aF0.03667223089573999
ababag1
(g2
g3
Ntp15
Rp16
(lp17
g1
(g7
g3
Ntp18
Rp19
(lp20
F0.08096622721657323
aF0.025015399234999052
aF-0.043500496725161396
abag1
(g11
g3
Ntp21
Rp22
(lp23
F-0.08613607337241729
aF0.39822443939604885
aF0.9124607895979411
aF0.037592288810154924
ababa.