(lp0
ccopy_reg
_reconstructor
p1
(cgeometry_msgs.msg._Pose
Pose
p2
c__builtin__
object
p3
Ntp4
Rp5
(lp6
g1
(cgeometry_msgs.msg._Point
Point
p7
g3
Ntp8
Rp9
(lp10
F0.0350215073487
aF0.0675648519641
aF-0.0965907041115
abag1
(cgeometry_msgs.msg._Quaternion
Quaternion
p11
g3
Ntp12
Rp13
(lp14
F0.4711903161547851
aF0.14211482960893518
aF0.8670748392136045
aF-0.07722877941466477
ababag1
(g2
g3
Ntp15
Rp16
(lp17
g1
(g7
g3
Ntp18
Rp19
(lp20
F0.020391408540899998
aF0.10285703868
aF-0.103549716871
abag1
(g11
g3
Ntp21
Rp22
(lp23
F0.44528439785713997
aF-0.22421475035507046
aF0.85903542305727
aF0.11622259970003652
ababag1
(g2
g3
Ntp24
Rp25
(lp26
g1
(g7
g3
Ntp27
Rp28
(lp29
F0.123059429922
aF0.07496514178619999
aF-0.010902514058399999
abag1
(g11
g3
Ntp30
Rp31
(lp32
F-0.13964175586997432
aF-0.013150474707397582
aF0.9901130264508179
aF-0.0018546926760896589
ababag1
(g2
g3
Ntp33
Rp34
(lp35
g1
(g7
g3
Ntp36
Rp37
(lp38
F0.08523944523560599
aF0.0659769812399748
aF-0.0705265127342619
abag1
(g11
g3
Ntp39
Rp40
(lp41
F0.2757130019072418
aF0.2843035826396065
aF0.9142222485972458
aF-0.08574085168330003
ababag1
(g2
g3
Ntp42
Rp43
(lp44
g1
(g7
g3
Ntp45
Rp46
(lp47
F0.0649950511707
aF0.12754481755400002
aF-0.0858139003604
abag1
(g11
g3
Ntp48
Rp49
(lp50
F0.25137884296696117
aF-0.3796583987379413
aF0.8837452927258633
aF0.1079927551329833
ababag1
(g2
g3
Ntp51
Rp52
(lp53
g1
(g7
g3
Ntp54
Rp55
(lp56
F0.0698300926737
aF0.0852728317518
aF-0.06872568805109999
abag1
(g11
g3
Ntp57
Rp58
(lp59
F0.39727532080004396
aF0.02221959740200246
aF0.9173799760611016
aF-0.009622291652621065
ababa.