(lp0
ccopy_reg
_reconstructor
p1
(cgeometry_msgs.msg._Pose
Pose
p2
c__builtin__
object
p3
Ntp4
Rp5
(lp6
g1
(cgeometry_msgs.msg._Point
Point
p7
g3
Ntp8
Rp9
(lp10
F0.0967330876797
aF0.023107416629500003
aF-0.10722666063900001
abag1
(cgeometry_msgs.msg._Quaternion
Quaternion
p11
g3
Ntp12
Rp13
(lp14
F0.07769614306046489
aF-0.2805887254368732
aF0.9564066574535678
aF0.0227943433713897
ababag1
(g2
g3
Ntp15
Rp16
(lp17
g1
(g7
g3
Ntp18
Rp19
(lp20
F0.0999039960992
aF-0.0109515697508
aF-0.0997670017087
abag1
(g11
g3
Ntp21
Rp22
(lp23
F0.05907227575179811
aF0.061561490052798026
aF0.9963469914309682
aF-0.003649910470309883
ababag1
(g2
g3
Ntp24
Rp25
(lp26
g1
(g7
g3
Ntp27
Rp28
(lp29
F0.096230090208
aF0.0075518051237600005
aF-0.0754299775673
abag1
(g11
g3
Ntp30
Rp31
(lp32
F-0.042809005997596024
aF-0.06525381568079396
aF0.9969460754199075
aF-0.0028020081082797397
ababag1
(g2
g3
Ntp33
Rp34
(lp35
g1
(g7
g3
Ntp36
Rp37
(lp38
F0.0745806915522
aF0.037488531769899996
aF-0.116857034603
abag1
(g11
g3
Ntp39
Rp40
(lp41
F0.1390539767120145
aF-0.34987905465603647
aF0.9249225633550965
aF0.05260124019650548
ababag1
(g2
g3
Ntp42
Rp43
(lp44
g1
(g7
g3
Ntp45
Rp46
(lp47
F0.08653268800780001
aF0.010398401765299999
aF-0.087636316881
abag1
(g11
g3
Ntp48
Rp49
(lp50
F0.0852342412712121
aF-0.15316667490802174
aF0.9844283748071396
aF0.013261549197401882
ababag1
(g2
g3
Ntp51
Rp52
(lp53
g1
(g7
g3
Ntp54
Rp55
(lp56
F0.105764051452
aF0.0282878734988
aF-0.03421311783
abag1
(g11
g3
Ntp57
Rp58
(lp59
F-0.2649800867020081
aF-0.23873852750600733
aF0.9317617102350285
aF-0.06789392075550209
ababag1
(g2
g3
Ntp60
Rp61
(lp62
g1
(g7
g3
Ntp63
Rp64
(lp65
F0.0887424630943
aF-0.00664587986064
aF-0.102997983085
abag1
(g11
g3
Ntp66
Rp67
(lp68
F0.1724341399010285
aF-0.004533802412350748
aF0.9850102954311627
aF0.0007936793382551311
ababag1
(g2
g3
Ntp69
Rp70
(lp71
g1
(g7
g3
Ntp72
Rp73
(lp74
F0.11626443306100001
aF0.00686149308222
aF-0.060474925345499995
abag1
(g11
g3
Ntp75
Rp76
(lp77
F-0.16092019870000146
aF-0.13057848429000118
aF0.978055407031009
aF-0.0214841771610002
ababag1
(g2
g3
Ntp78
Rp79
(lp80
g1
(g7
g3
Ntp81
Rp82
(lp83
F0.102792458369
aF0.0351295461864
aF-0.09430078189850001
abag1
(g11
g3
Ntp84
Rp85
(lp86
F0.015060960070996549
aF-0.3908866858259104
aF0.9202933470077892
aF0.006397013285658534
ababag1
(g2
g3
Ntp87
Rp88
(lp89
g1
(g7
g3
Ntp90
Rp91
(lp92
F0.0949004228467
aF-0.0111531554347
aF-0.0862436931102
abag1
(g11
g3
Ntp93
Rp94
(lp95
F-0.006969012346461806
aF0.08481840899822199
aF0.9963718775702584
aF0.0005932529337911537
ababag1
(g2
g3
Ntp96
Rp97
(lp98
g1
(g7
g3
Ntp99
Rp100
(lp101
F0.104833646229
aF0.023332198676
aF-0.0621083067352
abag1
(g11
g3
Ntp102
Rp103
(lp104
F-0.1414441492619727
aF-0.2548151154959508
aF0.9558456931158156
aF-0.03770703523599272
ababag1
(g2
g3
Ntp105
Rp106
(lp107
g1
(g7
g3
Ntp108
Rp109
(lp110
F0.0908734835922
aF-0.00259791338938
aF-0.07183923713750001
abag1
(g11
g3
Ntp111
Rp112
(lp113
F0.07571376975537394
aF-0.014835245880494894
aF0.9970185912716568
aF0.0011265912197596123
ababag1
(g2
g3
Ntp114
Rp115
(lp116
g1
(g7
g3
Ntp117
Rp118
(lp119
F0.08937853033899999
aF-0.00566778113097
aF-0.108584346654
abag1
(g11
g3
Ntp120
Rp121
(lp122
F0.09576815879842682
aF0.005396776232331511
aF0.9953889013662787
aF-0.0005192335603781454
ababag1
(g2
g3
Ntp123
Rp124
(lp125
g1
(g7
g3
Ntp126
Rp127
(lp128
F0.09556451588710001
aF0.0282633499839
aF-0.0916507848226
abag1
(g11
g3
Ntp129
Rp130
(lp131
F0.0038397644893595406
aF-0.3476427580579584
aF0.9376181216888879
aF0.0014236780267998298
ababag1
(g2
g3
Ntp132
Rp133
(lp134
g1
(g7
g3
Ntp135
Rp136
(lp137
F0.0870951755808
aF-0.013111615542099999
aF-0.100467389469
abag1
(g11
g3
Ntp138
Rp139
(lp140
F0.08820624255909644
aF0.06658283722689731
aF0.9938568631619598
aF-0.005909323674659761
ababag1
(g2
g3
Ntp141
Rp142
(lp143
g1
(g7
g3
Ntp144
Rp145
(lp146
F0.122663969057
aF0.030333087544400002
aF-0.0719266743502
abag1
(g11
g3
Ntp147
Rp148
(lp149
F-0.0804617754024543
aF-0.2538900899078558
aF0.9636474062434527
aF-0.021199089271287958
ababag1
(g2
g3
Ntp150
Rp151
(lp152
g1
(g7
g3
Ntp153
Rp154
(lp155
F0.0983220322185
aF-0.00234429059707
aF-0.111133209338
abag1
(g11
g3
Ntp156
Rp157
(lp158
F0.16245993356901445
aF0.10555738257800938
aF0.9808969160580873
aF-0.017482821161501554
ababa.