(lp0
ccopy_reg
_reconstructor
p1
(cgeometry_msgs.msg._Pose
Pose
p2
c__builtin__
object
p3
Ntp4
Rp5
(lp6
g1
(cgeometry_msgs.msg._Point
Point
p7
g3
Ntp8
Rp9
(lp10
F0.0262796365207
aF-0.0161171237378
aF-0.126540774848
abag1
(cgeometry_msgs.msg._Quaternion
Quaternion
p11
g3
Ntp12
Rp13
(lp14
F0.48897338947093366
aF0.009119047288378763
aF0.8722360538528816
aF-0.005112115512369307
ababag1
(g2
g3
Ntp15
Rp16
(lp17
g1
(g7
g3
Ntp18
Rp19
(lp20
F0.0910074748566
aF-0.0140105025916
aF-0.0254100796469
abag1
(g11
g3
Ntp21
Rp22
(lp23
F-0.13153947337896313
aF-0.044304267429487586
aF0.9903029171207225
aF-0.005884825648138351
ababag1
(g2
g3
Ntp24
Rp25
(lp26
g1
(g7
g3
Ntp27
Rp28
(lp29
F0.0076152694826199996
aF0.0220148998707
aF-0.140479412332
abag1
(g11
g3
Ntp30
Rp31
(lp32
F0.40254808873402714
aF-0.3188935835550215
aF0.844485013291057
aF0.15200980544301024
ababag1
(g2
g3
Ntp33
Rp34
(lp35
g1
(g7
g3
Ntp36
Rp37
(lp38
F0.0641570080178
aF-0.0271977154125
aF-0.10024491441000001
abag1
(g11
g3
Ntp39
Rp40
(lp41
F0.17224315566800408
aF0.15435104274100367
aF0.9725022903590231
aF-0.02733763297630065
ababag1
(g2
g3
Ntp42
Rp43
(lp44
g1
(g7
g3
Ntp45
Rp46
(lp47
F0.06964443307969999
aF0.00825920085445
aF-0.080270735019
abag1
(g11
g3
Ntp48
Rp49
(lp50
F-0.008549332995127194
aF-0.3523677648988843
aF0.9358170250736927
aF-0.0032191221981989425
ababag1
(g2
g3
Ntp51
Rp52
(lp53
g1
(g7
g3
Ntp54
Rp55
(lp56
F0.114369294242
aF0.00250160112478
aF-0.0485309549288
abag1
(g11
g3
Ntp57
Rp58
(lp59
F-0.1421905657809939
aF-0.055218932550597635
aF0.9882659520929578
aF-0.00794483635156966
ababag1
(g2
g3
Ntp60
Rp61
(lp62
g1
(g7
g3
Ntp63
Rp64
(lp65
F0.0304096247498
aF0.014360764956000001
aF-0.141293073108
abag1
(g11
g3
Ntp66
Rp67
(lp68
F0.41747487756275525
aF-0.15521233298990902
aF0.8923852632764768
aF0.07261129511835744
ababag1
(g2
g3
Ntp69
Rp70
(lp71
g1
(g7
g3
Ntp72
Rp73
(lp74
F0.07844327277259999
aF0.00091387880308
aF-0.105709221398
abag1
(g11
g3
Ntp75
Rp76
(lp77
F0.2545622196779402
aF-0.06315703625438515
aF0.9648479698377731
aF0.016663138483796084
ababag1
(g2
g3
Ntp78
Rp79
(lp80
g1
(g7
g3
Ntp81
Rp82
(lp83
F0.0929730028604
aF0.0215252752675
aF-0.102288082222
abag1
(g11
g3
Ntp84
Rp85
(lp86
F0.0978707312991947
aF-0.2362604751909872
aF0.9664522086859476
aF0.0239256377875987
ababag1
(g2
g3
Ntp87
Rp88
(lp89
g1
(g7
g3
Ntp90
Rp91
(lp92
F0.0914251640884
aF-0.0147219129663
aF-0.0650195826149
abag1
(g11
g3
Ntp93
Rp94
(lp95
F-0.07745027728121182
aF-0.037953458869005786
aF0.996269182489152
aF-0.00295051374152045
ababa.