(lp0
ccopy_reg
_reconstructor
p1
(cgeometry_msgs.msg._Pose
Pose
p2
c__builtin__
object
p3
Ntp4
Rp5
(lp6
g1
(cgeometry_msgs.msg._Point
Point
p7
g3
Ntp8
Rp9
(lp10
F0.11392655823625646
aF-0.018237769071696292
aF-0.07182016706446391
abag1
(cgeometry_msgs.msg._Quaternion
Quaternion
p11
g3
Ntp12
Rp13
(lp14
F-0.14867249726322365
aF0.1317166481685177
aF0.9798713264572797
aF0.019984912799883528
ababag1
(g2
g3
Ntp15
Rp16
(lp17
g1
(g7
g3
Ntp18
Rp19
(lp20
F0.106567456292
aF-0.00599752003455
aF-0.06726331740819999
abag1
(g11
g3
Ntp21
Rp22
(lp23
F-0.025731544867096546
aF-0.009013285035088789
aF0.9996282281238656
aF-0.00023201200381896882
ababag1
(g2
g3
Ntp24
Rp25
(lp26
g1
(g7
g3
Ntp27
Rp28
(lp29
F0.11244028881
aF0.00654198259801
aF-0.0959696470893
abag1
(g11
g3
Ntp30
Rp31
(lp32
F-0.07433947617068923
aF-0.1319336392049809
aF0.9884172676318568
aF-0.009922810890668564
ababag1
(g2
g3
Ntp33
Rp34
(lp35
g1
(g7
g3
Ntp36
Rp37
(lp38
F0.064443189237
aF0.00840166451133
aF-0.158798181334
abag1
(g11
g3
Ntp39
Rp40
(lp41
F0.26624038744497813
aF-0.13692557753198875
aF0.9533652345639217
aF0.03823835555509686
ababag1
(g2
g3
Ntp42
Rp43
(lp44
g1
(g7
g3
Ntp45
Rp46
(lp47
F0.0842088542364
aF0.013454393280099999
aF-0.139615721356
abag1
(g11
g3
Ntp48
Rp49
(lp50
F0.15063769938304888
aF-0.2715156716270881
aF0.9495958991163082
aF0.04307147509621397
ababag1
(g2
g3
Ntp51
Rp52
(lp53
g1
(g7
g3
Ntp54
Rp55
(lp56
F0.104455124145
aF-0.015198161597200001
aF-0.0486094740833
abag1
(g11
g3
Ntp57
Rp58
(lp59
F-0.1376185411479492
aF0.052437516394380636
aF0.9890693658966346
aF0.007296125788967305
ababag1
(g2
g3
Ntp60
Rp61
(lp62
g1
(g7
g3
Ntp63
Rp64
(lp65
F0.0763781462064
aF-0.0135480482394
aF-0.146952647768
abag1
(g11
g3
Ntp66
Rp67
(lp68
F0.203953236756044
aF0.0
aF0.9789806316862112
aF0.0
ababag1
(g2
g3
Ntp69
Rp70
(lp71
g1
(g7
g3
Ntp72
Rp73
(lp74
F0.107047451042
aF-0.0203676183603
aF-0.0450236558402
abag1
(g11
g3
Ntp75
Rp76
(lp77
F-0.278137579498027
aF0.028810036894202796
aF0.9600728129750932
aF0.00834640229231081
ababag1
(g2
g3
Ntp78
Rp79
(lp80
g1
(g7
g3
Ntp81
Rp82
(lp83
F0.10150174450999999
aF-0.012856619793
aF-0.0701390014313
abag1
(g11
g3
Ntp84
Rp85
(lp86
F-0.06731398241230022
aF-0.12269576052100038
aF0.9901237281820032
aF-0.008341523418450026
ababag1
(g2
g3
Ntp87
Rp88
(lp89
g1
(g7
g3
Ntp90
Rp91
(lp92
F0.10250573188699999
aF0.0053420592935
aF-0.103399286297
abag1
(g11
g3
Ntp93
Rp94
(lp95
F-0.03291249308770765
aF-0.24231884800905626
aF0.9696033660622251
aF-0.00822534006095191
ababag1
(g2
g3
Ntp96
Rp97
(lp98
g1
(g7
g3
Ntp99
Rp100
(lp101
F0.12168703409699999
aF-0.0222588767685
aF-0.0529840504891
abag1
(g11
g3
Ntp102
Rp103
(lp104
F-0.07823092091837497
aF0.19512349149093758
aF0.9775289762816872
aF0.015615588696095004
ababag1
(g2
g3
Ntp105
Rp106
(lp107
g1
(g7
g3
Ntp108
Rp109
(lp110
F0.13166211472800002
aF0.016627000412600002
aF-0.0745719757835
abag1
(g11
g3
Ntp111
Rp112
(lp113
F-0.1520702726529635
aF-0.34477034293391723
aF0.9245497560287781
aF-0.056707948610486385
ababag1
(g2
g3
Ntp114
Rp115
(lp116
g1
(g7
g3
Ntp117
Rp118
(lp119
F0.10261397777
aF-0.0401797456848
aF-0.106803168113
abag1
(g11
g3
Ntp120
Rp121
(lp122
F-0.009911491483502594
aF-0.005190353307791358
aF0.9999374080022617
aF-5.1447362799713466e-05
ababag1
(g2
g3
Ntp123
Rp124
(lp125
g1
(g7
g3
Ntp126
Rp127
(lp128
F0.10113627033599999
aF-0.0419634533527
aF-0.0726615489176
abag1
(g11
g3
Ntp129
Rp130
(lp131
F0.053468038065484114
aF0.17887386404294686
aF0.9823698520827081
aF-0.009735675979177108
ababag1
(g2
g3
Ntp132
Rp133
(lp134
g1
(g7
g3
Ntp135
Rp136
(lp137
F0.10528899515543698
aF0.030224316175787302
aF-0.10162490994963347
abag1
(g11
g3
Ntp138
Rp139
(lp140
F-0.013501560308498091
aF-0.4800411144765797
aF0.8771109584198528
aF-0.007389377587233069
ababag1
(g2
g3
Ntp141
Rp142
(lp143
g1
(g7
g3
Ntp144
Rp145
(lp146
F0.10929181397000001
aF-0.000581121517343
aF-0.07136353397470001
abag1
(g11
g3
Ntp147
Rp148
(lp149
F-0.11491010023801229
aF-0.2889623690410309
aF0.9497758564321017
aF-0.03496055892220374
ababag1
(g2
g3
Ntp150
Rp151
(lp152
g1
(g7
g3
Ntp153
Rp154
(lp155
F0.0772035264374
aF-0.00657950274643
aF-0.143311471684
abag1
(g11
g3
Ntp156
Rp157
(lp158
F0.20633998375698118
aF-0.14693234939398658
aF0.9668771674709118
aF0.03135663929949714
ababag1
(g2
g3
Ntp159
Rp160
(lp161
g1
(g7
g3
Ntp162
Rp163
(lp164
F0.10444671370099999
aF-0.0240198703158
aF-0.108214644769
abag1
(g11
g3
Ntp165
Rp166
(lp167
F-0.004551339753601129
aF0.0475398824060118
aF0.9988589479822478
aF0.00021661732831505375
ababag1
(g2
g3
Ntp168
Rp169
(lp170
g1
(g7
g3
Ntp171
Rp172
(lp173
F0.10602814517100001
aF0.00218982355012
aF-0.0785051527435
abag1
(g11
g3
Ntp174
Rp175
(lp176
F-0.09104857175479741
aF-0.31858599529099096
aF0.9430095200319732
aF-0.030759816561999127
ababag1
(g2
g3
Ntp177
Rp178
(lp179
g1
(g7
g3
Ntp180
Rp181
(lp182
F0.0802019484934
aF0.00763581929187
aF-0.140299961414
abag1
(g11
g3
Ntp183
Rp184
(lp185
F0.15395162148408703
aF-0.2796231506341581
aF0.9465947496795353
aF0.04547715636432571
ababag1
(g2
g3
Ntp186
Rp187
(lp188
g1
(g7
g3
Ntp189
Rp190
(lp191
F0.0988078380264
aF-0.0296691176311
aF-0.107677436835
abag1
(g11
g3
Ntp192
Rp193
(lp194
F0.024374454287692797
aF0.10655478328396852
aF0.9940045960637063
aF-0.0026128799651092276
ababag1
(g2
g3
Ntp195
Rp196
(lp197
g1
(g7
g3
Ntp198
Rp199
(lp200
F0.0920766126833
aF-0.0185395908138
aF-0.105827740992
abag1
(g11
g3
Ntp201
Rp202
(lp203
F0.14818210359603276
aF-0.06434675614331423
aF0.9868172054022182
aF0.009662415321432135
ababag1
(g2
g3
Ntp204
Rp205
(lp206
g1
(g7
g3
Ntp207
Rp208
(lp209
F0.111147199463
aF0.0155224397411
aF-0.103097677357
abag1
(g11
g3
Ntp210
Rp211
(lp212
F0.013302108303200482
aF-0.44534795188401616
aF0.8952343081700326
aF0.00661733652803024
ababag1
(g2
g3
Ntp213
Rp214
(lp215
g1
(g7
g3
Ntp216
Rp217
(lp218
F0.11143514236
aF-0.028854685514900003
aF-0.08743649259910001
abag1
(g11
g3
Ntp219
Rp220
(lp221
F0.018688841878900575
aF0.14048058392700433
aF0.9899034794250304
aF-0.0026521973855300816
ababag1
(g2
g3
Ntp222
Rp223
(lp224
g1
(g7
g3
Ntp225
Rp226
(lp227
F0.12024478457700001
aF-0.0217534684319
aF-0.0849172527933
abag1
(g11
g3
Ntp228
Rp229
(lp230
F-0.11319160267102824
aF0.0
aF0.993573178525248
aF0.0
ababag1
(g2
g3
Ntp231
Rp232
(lp233
g1
(g7
g3
Ntp234
Rp235
(lp236
F0.0907308996495
aF-0.023364161188699998
aF-0.14038145760200002
abag1
(g11
g3
Ntp237
Rp238
(lp239
F0.16857038480401226
aF0.0164621921290012
aF0.9855481181850718
aF-0.002815730668760205
ababag1
(g2
g3
Ntp240
Rp241
(lp242
g1
(g7
g3
Ntp243
Rp244
(lp245
F0.122137166833
aF-0.0040996695504299996
aF-0.0974257540003
abag1
(g11
g3
Ntp246
Rp247
(lp248
F-0.00161143619262935
aF-0.2818133184188863
aF0.9594677862306129
aF-0.000473308418879809
ababag1
(g2
g3
Ntp249
Rp250
(lp251
g1
(g7
g3
Ntp252
Rp253
(lp254
F0.100288693801
aF0.0112946518117
aF-0.115396456635
abag1
(g11
g3
Ntp255
Rp256
(lp257
F0.09952394425532568
aF-0.40400932474310425
aF0.9082464231932343
aF0.04427058614001142
ababag1
(g2
g3
Ntp258
Rp259
(lp260
g1
(g7
g3
Ntp261
Rp262
(lp263
F0.111970245134
aF-0.00287970999384
aF-0.101001725437
abag1
(g11
g3
Ntp264
Rp265
(lp266
F-0.026883316282710498
aF-0.13988701431705464
aF0.9897951682533864
aF-0.0037993990780614837
ababa.