(lp0
ccopy_reg
_reconstructor
p1
(cgeometry_msgs.msg._Pose
Pose
p2
c__builtin__
object
p3
Ntp4
Rp5
(lp6
g1
(cgeometry_msgs.msg._Point
Point
p7
g3
Ntp8
Rp9
(lp10
F0.113913139946
aF0.0035716412319300003
aF-0.127680142475
abag1
(cgeometry_msgs.msg._Quaternion
Quaternion
p11
g3
Ntp12
Rp13
(lp14
F0.13522338385896154
aF0.17059987974195148
aF0.9757311780497224
aF-0.023642877816893275
ababag1
(g2
g3
Ntp15
Rp16
(lp17
g1
(g7
g3
Ntp18
Rp19
(lp20
F0.12057623657199999
aF0.0140449899322
aF-0.10073424481399999
abag1
(g11
g3
Ntp21
Rp22
(lp23
F0.0297362444759898
aF0.23134253495192067
aF0.9723920699546665
aF-0.007074572479137574
ababa.