(lp0
ccopy_reg
_reconstructor
p1
(cgeometry_msgs.msg._Pose
Pose
p2
c__builtin__
object
p3
Ntp4
Rp5
(lp6
g1
(cgeometry_msgs.msg._Point
Point
p7
g3
Ntp8
Rp9
(lp10
F0.08777078243229999
aF0.0139870355031
aF-0.102040934135
abag1
(cgeometry_msgs.msg._Quaternion
Quaternion
p11
g3
Ntp12
Rp13
(lp14
F0.17417073342303652
aF0.16825032878503526
aF0.9697645378132034
aF-0.030217936437706337
ababag1
(g2
g3
Ntp15
Rp16
(lp17
g1
(g7
g3
Ntp18
Rp19
(lp20
F0.0825905557091
aF0.020435872159199998
aF-0.08714095538380001
abag1
(g11
g3
Ntp21
Rp22
(lp23
F-0.07042368069762478
aF-0.006194768366562181
aF0.997497838977351
aF-0.0004373527163621539
ababa.