(lp0
ccopy_reg
_reconstructor
p1
(cgeometry_msgs.msg._Pose
Pose
p2
c__builtin__
object
p3
Ntp4
Rp5
(lp6
g1
(cgeometry_msgs.msg._Point
Point
p7
g3
Ntp8
Rp9
(lp10
F0.07012014784580001
aF0.0608020046891
aF-0.11437808617
abag1
(cgeometry_msgs.msg._Quaternion
Quaternion
p11
g3
Ntp12
Rp13
(lp14
F0.1906877793950137
aF-0.35578242192802556
aF0.9118781387830653
aF0.07439959036150533
ababag1
(g2
g3
Ntp15
Rp16
(lp17
g1
(g7
g3
Ntp18
Rp19
(lp20
F0.0725034444451
aF0.00791042311951
aF-0.106215475928
abag1
(g11
g3
Ntp21
Rp22
(lp23
F0.21445846585693906
aF0.20471918566394182
aF0.9539284025887289
aF-0.04602416949708692
ababag1
(g2
g3
Ntp24
Rp25
(lp26
g1
(g7
g3
Ntp27
Rp28
(lp29
F0.033993402422
aF0.008026355254620001
aF-0.132722432062
abag1
(g11
g3
Ntp30
Rp31
(lp32
F0.46577008749775267
aF0.08234317351405629
aF0.8799876712155328
aF-0.04358355052807686
ababag1
(g2
g3
Ntp33
Rp34
(lp35
g1
(g7
g3
Ntp36
Rp37
(lp38
F0.0923229296219
aF0.021501222075800002
aF-0.108616119886
abag1
(g11
g3
Ntp39
Rp40
(lp41
F0.18462119472796157
aF-0.21241902258995576
aF0.9587073891538003
aF0.04090617656359148
ababa.