(lp0
ccopy_reg
_reconstructor
p1
(cgeometry_msgs.msg._Pose
Pose
p2
c__builtin__
object
p3
Ntp4
Rp5
(lp6
g1
(cgeometry_msgs.msg._Point
Point
p7
g3
Ntp8
Rp9
(lp10
F0.0318990220283
aF0.0210877086327
aF-0.139301785294
abag1
(cgeometry_msgs.msg._Quaternion
Quaternion
p11
g3
Ntp12
Rp13
(lp14
F0.40485150189703295
aF-0.1574312615710128
aF0.8979266505680731
aF0.07098161375650577
ababag1
(g2
g3
Ntp15
Rp16
(lp17
g1
(g7
g3
Ntp18
Rp19
(lp20
F0.056001434736699995
aF-0.0133456362256
aF-0.119116860609
abag1
(g11
g3
Ntp21
Rp22
(lp23
F0.3951058521347894
aF-0.06929499270866307
aF0.9155300459675121
aF0.02990492476288406
ababag1
(g2
g3
Ntp24
Rp25
(lp26
g1
(g7
g3
Ntp27
Rp28
(lp29
F0.029624058397134435
aF0.014928436661787703
aF-0.1406638291408474
abag1
(g11
g3
Ntp30
Rp31
(lp32
F0.3974861098380743
aF-0.276114305246965
aF0.8658514167218774
aF0.12675569843008333
ababag1
(g2
g3
Ntp33
Rp34
(lp35
g1
(g7
g3
Ntp36
Rp37
(lp38
F0.02004892851039783
aF0.011420104260344137
aF-0.13393492063902335
abag1
(g11
g3
Ntp39
Rp40
(lp41
F0.4370865965776009
aF-0.1837488206512947
aF0.8756594081680581
aF0.09171847626424218
ababag1
(g2
g3
Ntp42
Rp43
(lp44
g1
(g7
g3
Ntp45
Rp46
(lp47
F0.036031052005
aF0.0224947724571
aF-0.126395999588
abag1
(g11
g3
Ntp48
Rp49
(lp50
F0.45110487457486037
aF-0.08836858185557264
aF0.8869472181497254
aF0.04494461137998609
ababag1
(g2
g3
Ntp51
Rp52
(lp53
g1
(g7
g3
Ntp54
Rp55
(lp56
F0.0246545720807
aF0.0396352725786
aF-0.138253769992
abag1
(g11
g3
Ntp57
Rp58
(lp59
F0.4109328995751576
aF-0.21476495252008235
aF0.8803179102983376
aF0.10025240158603844
ababag1
(g2
g3
Ntp60
Rp61
(lp62
g1
(g7
g3
Ntp63
Rp64
(lp65
F0.00659482484911
aF0.061133327187699996
aF-0.140966400736
abag1
(g11
g3
Ntp66
Rp67
(lp68
F0.4032079046830672
aF-0.3316958043550553
aF0.8378055995561396
aF0.15963413271202662
ababa.