(lp0
ccopy_reg
_reconstructor
p1
(cgeometry_msgs.msg._Pose
Pose
p2
c__builtin__
object
p3
Ntp4
Rp5
(lp6
g1
(cgeometry_msgs.msg._Point
Point
p7
g3
Ntp8
Rp9
(lp10
F0.0366727802474
aF0.0335212665532
aF-0.123996443136
abag1
(cgeometry_msgs.msg._Quaternion
Quaternion
p11
g3
Ntp12
Rp13
(lp14
F0.358528279282989
aF0.10347919176799683
aF0.9269020693599715
aF-0.040026037046198774
ababag1
(g2
g3
Ntp15
Rp16
(lp17
g1
(g7
g3
Ntp18
Rp19
(lp20
F0.0748616708413
aF0.0288285509046
aF-0.0895798300035
abag1
(g11
g3
Ntp21
Rp22
(lp23
F0.10726494066902537
aF0.15282733304903615
aF0.9822726304742323
aF-0.016688864479703948
ababag1
(g2
g3
Ntp24
Rp25
(lp26
g1
(g7
g3
Ntp27
Rp28
(lp29
F0.0586654547533
aF0.05538742038
aF-0.09743411232
abag1
(g11
g3
Ntp30
Rp31
(lp32
F0.07104927725032055
aF-0.11530230478803336
aF0.9907517391892865
aF0.008268615735342393
ababag1
(g2
g3
Ntp33
Rp34
(lp35
g1
(g7
g3
Ntp36
Rp37
(lp38
F0.0292885834419
aF0.042591246776
aF-0.12301783061499999
abag1
(g11
g3
Ntp39
Rp40
(lp41
F0.26498938515408194
aF0.011854717710303666
aF0.9641729493152981
aF-0.0032581025628810076
ababag1
(g2
g3
Ntp42
Rp43
(lp44
g1
(g7
g3
Ntp45
Rp46
(lp47
F0.035664213451
aF0.0417141756329
aF-0.126674675819
abag1
(g11
g3
Ntp48
Rp49
(lp50
F0.32185561884902264
aF-0.010144513890800715
aF0.9467281316640667
aF0.003448792411520243
ababag1
(g2
g3
Ntp51
Rp52
(lp53
g1
(g7
g3
Ntp54
Rp55
(lp56
F0.07418629235890001
aF0.0331575340766
aF-0.092171080068
abag1
(g11
g3
Ntp57
Rp58
(lp59
F0.0764978623216847
aF0.08031455931828395
aF0.9938105602008014
aF-0.0061821561846887646
ababag1
(g2
g3
Ntp60
Rp61
(lp62
g1
(g7
g3
Ntp63
Rp64
(lp65
F0.031814503941
aF0.0614316879833
aF-0.129836300368
abag1
(g11
g3
Ntp66
Rp67
(lp68
F0.2765577565558834
aF-0.14225476405694001
aF0.9495065192135995
aF0.04143379493548253
ababag1
(g2
g3
Ntp69
Rp70
(lp71
g1
(g7
g3
Ntp72
Rp73
(lp74
F0.08405176307265166
aF0.07586060071395664
aF-0.05732707480783106
abag1
(g11
g3
Ntp75
Rp76
(lp77
F-0.10832072767958432
aF-0.2950394698611676
aF0.9487273477017178
aF-0.03368606391180832
ababag1
(g2
g3
Ntp78
Rp79
(lp80
g1
(g7
g3
Ntp81
Rp82
(lp83
F0.0766158037376
aF0.0362397717208
aF-0.0677251826943
abag1
(g11
g3
Ntp84
Rp85
(lp86
F-0.014228612266700896
aF0.12007402263400756
aF0.9926614797790625
aF0.0017211171644701084
ababag1
(g2
g3
Ntp87
Rp88
(lp89
g1
(g7
g3
Ntp90
Rp91
(lp92
F0.0854766620181
aF0.0568461213071
aF-0.058831042622699996
abag1
(g11
g3
Ntp93
Rp94
(lp95
F-0.1228255173289948
aF-0.10107350074199571
aF0.9871878726619582
aF-0.012575524234799467
ababag1
(g2
g3
Ntp96
Rp97
(lp98
g1
(g7
g3
Ntp99
Rp100
(lp101
F0.0688606461897
aF0.0554226458014
aF-0.0609399059536
abag1
(g11
g3
Ntp102
Rp103
(lp104
F0.10719360362397848
aF0.06644245336208666
aF0.9919896085028007
aF-0.007179718364428558
ababag1
(g2
g3
Ntp105
Rp106
(lp107
g1
(g7
g3
Ntp108
Rp109
(lp110
F0.0692095280461
aF0.0787796066882
aF-0.0841001232015
abag1
(g11
g3
Ntp111
Rp112
(lp113
F0.03610104402459217
aF-0.2521502515899453
aF0.9669686369647903
aF0.009413839276167959
ababag1
(g2
g3
Ntp114
Rp115
(lp116
g1
(g7
g3
Ntp117
Rp118
(lp119
F0.0654711112954
aF0.044414837351499994
aF-0.0793910195763
abag1
(g11
g3
Ntp120
Rp121
(lp122
F0.09453755709248798
aF0.17849144837997735
aF0.9792377209378756
aF-0.01723191941129781
ababag1
(g2
g3
Ntp123
Rp124
(lp125
g1
(g7
g3
Ntp126
Rp127
(lp128
F0.0583637962453
aF0.066720426613
aF-0.0979478578912
abag1
(g11
g3
Ntp129
Rp130
(lp131
F0.13531844690099748
aF-0.02458264072339954
aF0.9904914601999816
aF0.0033584184186199375
ababag1
(g2
g3
Ntp132
Rp133
(lp134
g1
(g7
g3
Ntp135
Rp136
(lp137
F0.0363078733351
aF0.0865168251063
aF-0.126090187069
abag1
(g11
g3
Ntp138
Rp139
(lp140
F0.2354790830350872
aF-0.20028799277907416
aF0.9497200375723516
aF0.04966056418381839
ababag1
(g2
g3
Ntp141
Rp142
(lp143
g1
(g7
g3
Ntp144
Rp145
(lp146
F0.021603319570699997
aF0.114000971643
aF-0.133185086692
abag1
(g11
g3
Ntp147
Rp148
(lp149
F0.3340070545420016
aF-0.44684856557000213
aF0.8091622668350038
aF0.18445073297400086
ababag1
(g2
g3
Ntp150
Rp151
(lp152
g1
(g7
g3
Ntp153
Rp154
(lp155
F0.0834818361623
aF0.0603238373464
aF-0.0618114513799
abag1
(g11
g3
Ntp156
Rp157
(lp158
F-0.03400113360801177
aF0.03365832694931165
aF0.9988542071963458
aF0.0011457340454503965
ababag1
(g2
g3
Ntp159
Rp160
(lp161
g1
(g7
g3
Ntp162
Rp163
(lp164
F0.0401610203882
aF0.0843358419952
aF-0.125478577441
abag1
(g11
g3
Ntp165
Rp166
(lp167
F0.27273068704490394
aF-0.2237859675739212
aF0.9334143421246712
aF0.06538714687907697
ababag1
(g2
g3
Ntp168
Rp169
(lp170
g1
(g7
g3
Ntp171
Rp172
(lp173
F0.059812687212999996
aF0.056080209779500005
aF-0.107095737128
abag1
(g11
g3
Ntp174
Rp175
(lp176
F0.17838674498807508
aF0.07473409420113146
aF0.9810241135674129
aF-0.01358944354150572
ababag1
(g2
g3
Ntp177
Rp178
(lp179
g1
(g7
g3
Ntp180
Rp181
(lp182
F0.0303240933666
aF0.046905125818499996
aF-0.127567011752
abag1
(g11
g3
Ntp183
Rp184
(lp185
F0.3424948215499238
aF-0.1860542121219586
aF0.9182950704937958
aF0.06939229690648457
ababag1
(g2
g3
Ntp186
Rp187
(lp188
g1
(g7
g3
Ntp189
Rp190
(lp191
F0.0707873873092
aF0.0324521403136
aF-0.0789898089931
abag1
(g11
g3
Ntp192
Rp193
(lp194
F0.15378166882096544
aF-0.018972863635295736
aF0.987918269110778
aF0.0029533603369593367
ababag1
(g2
g3
Ntp195
Rp196
(lp197
g1
(g7
g3
Ntp198
Rp199
(lp200
F0.0563965325818
aF0.104223278154
aF-0.100448447011
abag1
(g11
g3
Ntp201
Rp202
(lp203
F0.09262109532524039
aF-0.3589441272761565
aF0.9280609726204045
aF0.03582285993021562
ababag1
(g2
g3
Ntp204
Rp205
(lp206
g1
(g7
g3
Ntp207
Rp208
(lp209
F0.0314672254163
aF0.0827093157871
aF-0.12176584585
abag1
(g11
g3
Ntp210
Rp211
(lp212
F0.25738642196100703
aF-0.18248787468700498
aF0.9476252564630258
aF0.04956590255120135
ababag1
(g2
g3
Ntp213
Rp214
(lp215
g1
(g7
g3
Ntp216
Rp217
(lp218
F0.07331338661060001
aF0.0394888648841
aF-0.0588033753455
abag1
(g11
g3
Ntp219
Rp220
(lp221
F-0.009243952767614099
aF0.11441986165005075
aF0.9933889021654406
aF0.0010647308365004722
ababag1
(g2
g3
Ntp222
Rp223
(lp224
g1
(g7
g3
Ntp225
Rp226
(lp227
F0.0423299703547
aF0.0714561037617
aF-0.113480442066
abag1
(g11
g3
Ntp228
Rp229
(lp230
F0.23279614667502482
aF-0.31686817098803377
aF0.9159226513490976
aF0.08053702908350859
ababa.