(lp0
ccopy_reg
_reconstructor
p1
(cgeometry_msgs.msg._Pose
Pose
p2
c__builtin__
object
p3
Ntp4
Rp5
(lp6
g1
(cgeometry_msgs.msg._Point
Point
p7
g3
Ntp8
Rp9
(lp10
F0.0403450885174
aF0.017400250552
aF-0.134702255521
abag1
(cgeometry_msgs.msg._Quaternion
Quaternion
p11
g3
Ntp12
Rp13
(lp14
F0.44395113709007294
aF0.19910007165603272
aF0.8676919411991425
aF-0.10186876126201673
ababag1
(g2
g3
Ntp15
Rp16
(lp17
g1
(g7
g3
Ntp18
Rp19
(lp20
F0.0787164012889
aF0.0295438351679
aF-0.101334312401
abag1
(g11
g3
Ntp21
Rp22
(lp23
F0.2782840008890262
aF-0.023282753755002192
aF0.9601928946960904
aF0.006747829423090635
ababag1
(g2
g3
Ntp24
Rp25
(lp26
g1
(g7
g3
Ntp27
Rp28
(lp29
F0.0411165754839
aF0.0532832414327
aF-0.13624017197899999
abag1
(g11
g3
Ntp30
Rp31
(lp32
F0.33104157552090663
aF-0.3010777693759151
aF0.8872110138467497
aF0.11233997050596832
ababag1
(g2
g3
Ntp33
Rp34
(lp35
g1
(g7
g3
Ntp36
Rp37
(lp38
F0.07266934845119999
aF0.0561120437025
aF-0.12406954936
abag1
(g11
g3
Ntp39
Rp40
(lp41
F0.2026421630329427
aF-0.3807880442928923
aF0.898083683884746
aF0.0859204040081757
ababag1
(g2
g3
Ntp42
Rp43
(lp44
g1
(g7
g3
Ntp45
Rp46
(lp47
F0.02780588638593143
aF0.05931972545631734
aF-0.14649037872320275
abag1
(g11
g3
Ntp48
Rp49
(lp50
F0.37059787019643947
aF-0.35595894709910764
aF0.8434996176348534
aF0.15639322758934884
ababag1
(g2
g3
Ntp51
Rp52
(lp53
g1
(g7
g3
Ntp54
Rp55
(lp56
F0.0755442974778
aF0.0220499980382
aF-0.117183750666
abag1
(g11
g3
Ntp57
Rp58
(lp59
F0.14567911178907023
aF-0.00900673153442434
aF0.9892900060704768
aF0.0013262972859406392
ababa.